ARM GAS  /tmp/ccVvSPo8.s 			page 1


   1              		.cpu cortex-m7
   2              		.eabi_attribute 28, 1
   3              		.eabi_attribute 20, 1
   4              		.eabi_attribute 21, 1
   5              		.eabi_attribute 23, 3
   6              		.eabi_attribute 24, 1
   7              		.eabi_attribute 25, 1
   8              		.eabi_attribute 26, 1
   9              		.eabi_attribute 30, 1
  10              		.eabi_attribute 34, 1
  11              		.eabi_attribute 18, 4
  12              		.file	"main.c"
  13              		.text
  14              	.Ltext0:
  15              		.cfi_sections	.debug_frame
  16              		.section	.text.MX_GPIO_Init,"ax",%progbits
  17              		.align	1
  18              		.arch armv7e-m
  19              		.syntax unified
  20              		.thumb
  21              		.thumb_func
  22              		.fpu fpv5-d16
  24              	MX_GPIO_Init:
  25              	.LFB161:
  26              		.file 1 "Core/Src/main.c"
   1:Core/Src/main.c **** /* USER CODE BEGIN Header */
   2:Core/Src/main.c **** /**
   3:Core/Src/main.c ****   ******************************************************************************
   4:Core/Src/main.c ****   * @file           : main.c
   5:Core/Src/main.c ****   * @brief          : Main program body
   6:Core/Src/main.c ****   ******************************************************************************
   7:Core/Src/main.c ****   * @attention
   8:Core/Src/main.c ****   *
   9:Core/Src/main.c ****   * Copyright (c) 2026 STMicroelectronics.
  10:Core/Src/main.c ****   * All rights reserved.
  11:Core/Src/main.c ****   *
  12:Core/Src/main.c ****   * This software is licensed under terms that can be found in the LICENSE file
  13:Core/Src/main.c ****   * in the root directory of this software component.
  14:Core/Src/main.c ****   * If no LICENSE file comes with this software, it is provided AS-IS.
  15:Core/Src/main.c ****   *
  16:Core/Src/main.c ****   ******************************************************************************
  17:Core/Src/main.c ****   */
  18:Core/Src/main.c **** /* USER CODE END Header */
  19:Core/Src/main.c **** /* Includes ------------------------------------------------------------------*/
  20:Core/Src/main.c **** #include "main.h"
  21:Core/Src/main.c **** 
  22:Core/Src/main.c **** /* Private includes ----------------------------------------------------------*/
  23:Core/Src/main.c **** /* USER CODE BEGIN Includes */
  24:Core/Src/main.c **** #include "stm32h7xx_hal_def.h"
  25:Core/Src/main.c **** #include "stm32h7xx_hal_gpio.h"
  26:Core/Src/main.c **** #include "stm32h7xx_hal_uart.h"
  27:Core/Src/main.c **** #include "stm32h7xx_hal_uart_ex.h"
  28:Core/Src/main.c **** #include "string.h"
  29:Core/Src/main.c **** #include "stdio.h"
  30:Core/Src/main.c **** #include <stdint.h>
  31:Core/Src/main.c **** #include <stdbool.h>
  32:Core/Src/main.c **** #include <sys/types.h>
ARM GAS  /tmp/ccVvSPo8.s 			page 2


  33:Core/Src/main.c **** 
  34:Core/Src/main.c **** /* USER CODE END Includes */
  35:Core/Src/main.c **** 
  36:Core/Src/main.c **** /* Private typedef -----------------------------------------------------------*/
  37:Core/Src/main.c **** /* USER CODE BEGIN PTD */
  38:Core/Src/main.c **** typedef struct Pin {
  39:Core/Src/main.c ****   GPIO_TypeDef* Letter;
  40:Core/Src/main.c ****   uint16_t Number;
  41:Core/Src/main.c ****   uint16_t index;
  42:Core/Src/main.c **** } Pin; 
  43:Core/Src/main.c **** 
  44:Core/Src/main.c **** typedef enum State {
  45:Core/Src/main.c ****   Start,
  46:Core/Src/main.c ****   Configure_Pins,
  47:Core/Src/main.c ****   Echo,
  48:Core/Src/main.c ****   Continue,
  49:Core/Src/main.c ****   Default,
  50:Core/Src/main.c **** } State;
  51:Core/Src/main.c **** 
  52:Core/Src/main.c **** /* USER CODE END PTD */
  53:Core/Src/main.c **** 
  54:Core/Src/main.c **** /* Private define ------------------------------------------------------------*/
  55:Core/Src/main.c **** /* USER CODE BEGIN PD */
  56:Core/Src/main.c **** // #define Debug
  57:Core/Src/main.c **** /* USER CODE END PD */
  58:Core/Src/main.c **** 
  59:Core/Src/main.c **** /* Private macro -------------------------------------------------------------*/
  60:Core/Src/main.c **** /* USER CODE BEGIN PM */
  61:Core/Src/main.c **** 
  62:Core/Src/main.c **** /* USER CODE END PM */
  63:Core/Src/main.c **** 
  64:Core/Src/main.c **** /* Private variables ---------------------------------------------------------*/
  65:Core/Src/main.c **** 
  66:Core/Src/main.c **** UART_HandleTypeDef huart3;
  67:Core/Src/main.c **** DMA_HandleTypeDef hdma_usart3_rx;
  68:Core/Src/main.c **** DMA_HandleTypeDef hdma_usart3_tx;
  69:Core/Src/main.c **** 
  70:Core/Src/main.c **** /* USER CODE BEGIN PV */
  71:Core/Src/main.c **** #define GPIO_PINS_Len 72
  72:Core/Src/main.c **** Pin Pins[GPIO_PINS_Len] = {
  73:Core/Src/main.c ****     {.index=0, .Letter = GPIOE, .Number = GPIO_PIN_14},
  74:Core/Src/main.c ****     {.index=1, .Letter = GPIOE, .Number = GPIO_PIN_15},
  75:Core/Src/main.c ****     {.index=2, .Letter = GPIOE, .Number = GPIO_PIN_13},
  76:Core/Src/main.c ****     {.index=3, .Letter = GPIOF, .Number = GPIO_PIN_13},
  77:Core/Src/main.c ****     {.index=4, .Letter = GPIOF, .Number = GPIO_PIN_12},
  78:Core/Src/main.c ****     {.index=5, .Letter = GPIOG, .Number = GPIO_PIN_14},
  79:Core/Src/main.c ****     {.index=6, .Letter = GPIOG, .Number = GPIO_PIN_4},
  80:Core/Src/main.c ****     {.index=7, .Letter = GPIOG, .Number = GPIO_PIN_6},
  81:Core/Src/main.c ****     {.index=8, .Letter = GPIOG, .Number = GPIO_PIN_5},
  82:Core/Src/main.c ****     {.index=9, .Letter = GPIOG, .Number = GPIO_PIN_8},
  83:Core/Src/main.c ****     {.index=10, .Letter = GPIOE, .Number = GPIO_PIN_0},
  84:Core/Src/main.c ****     {.index=11, .Letter = GPIOF, .Number = GPIO_PIN_11},
  85:Core/Src/main.c ****     {.index=12, .Letter = GPIOF, .Number = GPIO_PIN_15},
  86:Core/Src/main.c ****     {.index=13, .Letter = GPIOF, .Number = GPIO_PIN_3},
  87:Core/Src/main.c ****     {.index=14, .Letter = GPIOE, .Number = GPIO_PIN_12},
  88:Core/Src/main.c ****     {.index=15, .Letter = GPIOE, .Number = GPIO_PIN_10},
  89:Core/Src/main.c ****     {.index=16, .Letter = GPIOD, .Number = GPIO_PIN_11},
ARM GAS  /tmp/ccVvSPo8.s 			page 3


  90:Core/Src/main.c ****     {.index=17, .Letter = GPIOD, .Number = GPIO_PIN_12},
  91:Core/Src/main.c ****     {.index=18, .Letter = GPIOD, .Number = GPIO_PIN_13},
  92:Core/Src/main.c ****     {.index=19, .Letter = GPIOA, .Number = GPIO_PIN_3},
  93:Core/Src/main.c ****     {.index=20, .Letter = GPIOB, .Number = GPIO_PIN_10},
  94:Core/Src/main.c ****     {.index=21, .Letter = GPIOF, .Number = GPIO_PIN_10},
  95:Core/Src/main.c ****     {.index=22, .Letter = GPIOE, .Number = GPIO_PIN_7},
  96:Core/Src/main.c ****     {.index=23, .Letter = GPIOD, .Number = GPIO_PIN_14},
  97:Core/Src/main.c ****     {.index=24, .Letter = GPIOD, .Number = GPIO_PIN_15},
  98:Core/Src/main.c ****     {.index=25, .Letter = GPIOF, .Number = GPIO_PIN_14},
  99:Core/Src/main.c ****     {.index=26, .Letter = GPIOE, .Number = GPIO_PIN_9},
 100:Core/Src/main.c ****     {.index=27, .Letter = GPIOE, .Number = GPIO_PIN_11},
 101:Core/Src/main.c ****     {.index=28, .Letter = GPIOE, .Number = GPIO_PIN_5},
 102:Core/Src/main.c ****     {.index=29, .Letter = GPIOE, .Number = GPIO_PIN_4},
 103:Core/Src/main.c ****     {.index=30, .Letter = GPIOE, .Number = GPIO_PIN_2},
 104:Core/Src/main.c ****     {.index=31, .Letter = GPIOG, .Number = GPIO_PIN_3},
 105:Core/Src/main.c ****     {.index=32, .Letter = GPIOG, .Number = GPIO_PIN_2},
 106:Core/Src/main.c ****     {.index=33, .Letter = GPIOD, .Number = GPIO_PIN_3},
 107:Core/Src/main.c ****     {.index=34, .Letter = GPIOC, .Number = GPIO_PIN_0},
 108:Core/Src/main.c ****     {.index=35, .Letter = GPIOA, .Number = GPIO_PIN_4},
 109:Core/Src/main.c ****     {.index=36, .Letter = GPIOD, .Number = GPIO_PIN_4},
 110:Core/Src/main.c ****     {.index=37, .Letter = GPIOD, .Number = GPIO_PIN_5},
 111:Core/Src/main.c ****     {.index=38, .Letter = GPIOD, .Number = GPIO_PIN_6},
 112:Core/Src/main.c ****     {.index=39, .Letter = GPIOD, .Number = GPIO_PIN_7},
 113:Core/Src/main.c ****     {.index=40, .Letter = GPIOE, .Number = GPIO_PIN_3},
 114:Core/Src/main.c ****     {.index=41, .Letter = GPIOF, .Number = GPIO_PIN_1},
 115:Core/Src/main.c ****     {.index=42, .Letter = GPIOF, .Number = GPIO_PIN_2},
 116:Core/Src/main.c ****     {.index=43, .Letter = GPIOF, .Number = GPIO_PIN_8},
 117:Core/Src/main.c ****     {.index=44, .Letter = GPIOF, .Number = GPIO_PIN_9},
 118:Core/Src/main.c ****     {.index=45, .Letter = GPIOG, .Number = GPIO_PIN_1},
 119:Core/Src/main.c ****     {.index=46, .Letter = GPIOE, .Number = GPIO_PIN_6},
 120:Core/Src/main.c ****     {.index=47, .Letter = GPIOG, .Number = GPIO_PIN_15},
 121:Core/Src/main.c ****     {.index=48, .Letter = GPIOG, .Number = GPIO_PIN_10},
 122:Core/Src/main.c ****     {.index=49, .Letter = GPIOG, .Number = GPIO_PIN_12},
 123:Core/Src/main.c ****     {.index=50, .Letter = GPIOG, .Number = GPIO_PIN_9},
 124:Core/Src/main.c ****     {.index=51, .Letter = GPIOE, .Number = GPIO_PIN_1},
 125:Core/Src/main.c ****     {.index=52, .Letter = GPIOG, .Number = GPIO_PIN_0},
 126:Core/Src/main.c ****     {.index=53, .Letter = GPIOD, .Number = GPIO_PIN_0},
 127:Core/Src/main.c ****     {.index=54, .Letter = GPIOD, .Number = GPIO_PIN_1},
 128:Core/Src/main.c ****     {.index=55, .Letter = GPIOF, .Number = GPIO_PIN_0},
 129:Core/Src/main.c ****     //------------------------------------------------
 130:Core/Src/main.c ****     {.index=56, .Letter= GPIOA, .Number = GPIO_PIN_6},
 131:Core/Src/main.c ****     {.index=57, .Letter= GPIOA, .Number = GPIO_PIN_5},
 132:Core/Src/main.c ****     {.index=58, .Letter= GPIOC, .Number = GPIO_PIN_6},
 133:Core/Src/main.c ****     {.index=59, .Letter= GPIOB, .Number = GPIO_PIN_11},
 134:Core/Src/main.c ****     {.index=60, .Letter= GPIOB, .Number = GPIO_PIN_2},
 135:Core/Src/main.c ****     {.index=61, .Letter= GPIOB, .Number = GPIO_PIN_1},
 136:Core/Src/main.c ****     {.index=62, .Letter= GPIOF, .Number = GPIO_PIN_4},
 137:Core/Src/main.c ****     {.index=63, .Letter= GPIOE, .Number = GPIO_PIN_8},
 138:Core/Src/main.c ****     //------------------------------------------------
 139:Core/Src/main.c ****     {.index=64, .Letter= GPIOC, .Number = GPIO_PIN_11},
 140:Core/Src/main.c ****     {.index=65, .Letter= GPIOC, .Number = GPIO_PIN_10},
 141:Core/Src/main.c ****     {.index=66, .Letter= GPIOC, .Number = GPIO_PIN_12},
 142:Core/Src/main.c ****     {.index=67, .Letter= GPIOF, .Number = GPIO_PIN_6},
 143:Core/Src/main.c ****     {.index=68, .Letter= GPIOF, .Number = GPIO_PIN_7},
 144:Core/Src/main.c ****     {.index=69, .Letter= GPIOB, .Number = GPIO_PIN_7},
 145:Core/Src/main.c ****     {.index=70, .Letter= GPIOC, .Number = GPIO_PIN_2},
 146:Core/Src/main.c ****     {.index=71, .Letter= GPIOC, .Number = GPIO_PIN_3},
ARM GAS  /tmp/ccVvSPo8.s 			page 4


 147:Core/Src/main.c **** };
 148:Core/Src/main.c **** 
 149:Core/Src/main.c **** uint8_t Output_Pins_len = 0;
 150:Core/Src/main.c **** Pin Output_Pins[GPIO_PINS_Len ];
 151:Core/Src/main.c **** uint8_t Input_Pins_len = 0;
 152:Core/Src/main.c **** Pin Input_Pins[GPIO_PINS_Len];
 153:Core/Src/main.c **** 
 154:Core/Src/main.c **** #define RX3_BUF_SIZE 256
 155:Core/Src/main.c **** //uint8_t* rx3_buf = (uint8_t*)0x30000000;
 156:Core/Src/main.c **** uint8_t rx3_buf[RX3_BUF_SIZE] __attribute__((section(".dma_buffer"), aligned(32)));
 157:Core/Src/main.c **** volatile uint8_t rx3_len = 0;
 158:Core/Src/main.c **** volatile uint8_t rx3_offset = 0;
 159:Core/Src/main.c **** volatile bool rx3_done = false;
 160:Core/Src/main.c **** 
 161:Core/Src/main.c **** #define CONN_MSG_SIZE 256
 162:Core/Src/main.c **** uint8_t conn_msg[CONN_MSG_SIZE] __attribute__((section(".dma_buffer"), aligned(32)));
 163:Core/Src/main.c **** 
 164:Core/Src/main.c **** /* USER CODE END PV */
 165:Core/Src/main.c **** 
 166:Core/Src/main.c **** /* Private function prototypes -----------------------------------------------*/
 167:Core/Src/main.c **** void SystemClock_Config(void);
 168:Core/Src/main.c **** static void MPU_Config(void);
 169:Core/Src/main.c **** static void MX_GPIO_Init(void);
 170:Core/Src/main.c **** static void MX_DMA_Init(void);
 171:Core/Src/main.c **** static void MX_USART3_UART_Init(void);
 172:Core/Src/main.c **** /* USER CODE BEGIN PFP */
 173:Core/Src/main.c **** 
 174:Core/Src/main.c **** /* USER CODE END PFP */
 175:Core/Src/main.c **** 
 176:Core/Src/main.c **** /* Private user code ---------------------------------------------------------*/
 177:Core/Src/main.c **** /* USER CODE BEGIN 0 */
 178:Core/Src/main.c **** //FF FF FF 1C 01 02 03 04 05 06 07 08 09 0A 0B 0C 0D 0E 0F 10 11 12 13 14 15 16 17 18 19 1A 1B 1C 1
 179:Core/Src/main.c **** void do_Tx(UART_HandleTypeDef* huart, uint8_t* buf, uint16_t len) {
 180:Core/Src/main.c ****   while(huart->gState != HAL_UART_STATE_READY) {}
 181:Core/Src/main.c ****   HAL_UART_Transmit_DMA(huart, buf, len);
 182:Core/Src/main.c **** }
 183:Core/Src/main.c **** 
 184:Core/Src/main.c **** void set_pin_output(Pin pin) {
 185:Core/Src/main.c ****   GPIO_InitTypeDef GPIO_InitStruct = {0};
 186:Core/Src/main.c ****   GPIO_InitStruct.Pin = pin.Number;
 187:Core/Src/main.c ****   GPIO_InitStruct.Mode = GPIO_MODE_OUTPUT_PP;  
 188:Core/Src/main.c ****   GPIO_InitStruct.Pull = GPIO_NOPULL;          
 189:Core/Src/main.c ****   GPIO_InitStruct.Speed = GPIO_SPEED_FREQ_LOW; 
 190:Core/Src/main.c ****   HAL_GPIO_Init(pin.Letter, &GPIO_InitStruct);
 191:Core/Src/main.c **** }
 192:Core/Src/main.c **** 
 193:Core/Src/main.c **** void set_pin_input(Pin pin) {
 194:Core/Src/main.c ****   GPIO_InitTypeDef GPIO_InitStruct = {0};
 195:Core/Src/main.c ****   GPIO_InitStruct.Pin = pin.Number;
 196:Core/Src/main.c ****   GPIO_InitStruct.Mode = GPIO_MODE_INPUT;  
 197:Core/Src/main.c ****   GPIO_InitStruct.Pull = GPIO_PULLDOWN;      
 198:Core/Src/main.c ****   GPIO_InitStruct.Speed = GPIO_SPEED_FREQ_LOW;
 199:Core/Src/main.c ****   HAL_GPIO_Init(pin.Letter, &GPIO_InitStruct);
 200:Core/Src/main.c **** }
 201:Core/Src/main.c **** 
 202:Core/Src/main.c **** int append_pin_config(uint8_t* confptr, uint8_t len) {
 203:Core/Src/main.c ****     if(confptr[0] >= len) {
ARM GAS  /tmp/ccVvSPo8.s 			page 5


 204:Core/Src/main.c ****     #ifdef Debug
 205:Core/Src/main.c ****     do_Tx(&huart3, (uint8_t*)"impossible pin config continue\n", 32);
 206:Core/Src/main.c ****     #endif
 207:Core/Src/main.c ****     return 1;
 208:Core/Src/main.c ****   }
 209:Core/Src/main.c **** 
 210:Core/Src/main.c ****   return 0;
 211:Core/Src/main.c **** 
 212:Core/Src/main.c **** }
 213:Core/Src/main.c **** 
 214:Core/Src/main.c **** int apply_pin_config(uint8_t* confptr, uint8_t len, bool append) {
 215:Core/Src/main.c ****   if(confptr[0] >= len) {
 216:Core/Src/main.c ****     #ifdef Debug
 217:Core/Src/main.c ****     do_Tx(&huart3, (uint8_t*)"impossible pin config\n", 22);
 218:Core/Src/main.c ****     #endif
 219:Core/Src/main.c ****     return 1;
 220:Core/Src/main.c ****   }
 221:Core/Src/main.c ****   #ifdef Debug 
 222:Core/Src/main.c ****     char conn_unit[4] = "";
 223:Core/Src/main.c ****     conn_msg[0] = '\0';
 224:Core/Src/main.c ****   #endif /* if  */
 225:Core/Src/main.c ****   uint8_t output_count = confptr[0];
 226:Core/Src/main.c **** 
 227:Core/Src/main.c ****   if (!append) {
 228:Core/Src/main.c ****     Output_Pins_len = 0;
 229:Core/Src/main.c ****     Input_Pins_len = 0;
 230:Core/Src/main.c ****   }
 231:Core/Src/main.c **** 
 232:Core/Src/main.c ****   for(uint8_t i = 1; i <= output_count; i++) {
 233:Core/Src/main.c ****     if (confptr[i] >= GPIO_PINS_Len) {
 234:Core/Src/main.c ****       #ifdef Debug
 235:Core/Src/main.c ****         do_Tx(&huart3, (uint8_t*)"undefined pin in config !\n", 26);
 236:Core/Src/main.c ****       #endif
 237:Core/Src/main.c ****       return 1;
 238:Core/Src/main.c ****     }
 239:Core/Src/main.c ****     Output_Pins[Output_Pins_len] = Pins[confptr[i]];
 240:Core/Src/main.c ****     #ifdef Debug
 241:Core/Src/main.c ****       snprintf(conn_unit, 4, "%d,",Output_Pins[Output_Pins_len].index);
 242:Core/Src/main.c ****       strcat((char*)conn_msg, conn_unit);
 243:Core/Src/main.c ****     #endif /* ifdef Debug */
 244:Core/Src/main.c ****     Output_Pins_len++; 
 245:Core/Src/main.c ****   }
 246:Core/Src/main.c ****   
 247:Core/Src/main.c ****   strcat((char*)conn_msg, ":");
 248:Core/Src/main.c ****   
 249:Core/Src/main.c ****   for(uint8_t i = output_count+1; i < len; i++) {
 250:Core/Src/main.c ****     if (confptr[i] >= GPIO_PINS_Len) {
 251:Core/Src/main.c ****       #ifdef Debug
 252:Core/Src/main.c ****         do_Tx(&huart3, (uint8_t*)"undefined pin in config !\n", 26);
 253:Core/Src/main.c ****       #endif
 254:Core/Src/main.c ****       return 1;
 255:Core/Src/main.c ****     }
 256:Core/Src/main.c ****     Input_Pins[Input_Pins_len] = Pins[confptr[i]];
 257:Core/Src/main.c ****     #ifdef  Debug
 258:Core/Src/main.c ****       snprintf(conn_unit, 4, "%d,",Input_Pins[Input_Pins_len].index);
 259:Core/Src/main.c ****       strcat((char*)conn_msg, conn_unit);
 260:Core/Src/main.c ****     #endif /* ifdef  DEBUG */
ARM GAS  /tmp/ccVvSPo8.s 			page 6


 261:Core/Src/main.c ****     Input_Pins_len++;
 262:Core/Src/main.c ****   }
 263:Core/Src/main.c ****   #ifdef Debug
 264:Core/Src/main.c ****     strcat((char*)conn_msg, "\n");
 265:Core/Src/main.c ****   #endif /* ifdef Debug */
 266:Core/Src/main.c ****   #ifdef Debug
 267:Core/Src/main.c ****     do_Tx(&huart3, conn_msg, strlen((char*)conn_msg));
 268:Core/Src/main.c ****   #endif
 269:Core/Src/main.c ****   return 0;
 270:Core/Src/main.c **** }
 271:Core/Src/main.c **** 
 272:Core/Src/main.c **** uint8_t* trim_leading(uint8_t thing, uint8_t* org_str, uint16_t* len ) {
 273:Core/Src/main.c ****   uint8_t* str = org_str;
 274:Core/Src/main.c ****   while(*str == thing) {str++; (*len)--;}
 275:Core/Src/main.c ****   return str;
 276:Core/Src/main.c **** }
 277:Core/Src/main.c **** 
 278:Core/Src/main.c **** int process_ascii_input(char* result, uint8_t size) {
 279:Core/Src/main.c ****     if(rx3_len <= 1) {
 280:Core/Src/main.c ****       #ifdef Debug
 281:Core/Src/main.c ****       do_Tx(&huart3, (uint8_t*)"Input Error (ASCII) !\n", 22);
 282:Core/Src/main.c ****       #endif
 283:Core/Src/main.c ****       return 1;
 284:Core/Src/main.c ****     }
 285:Core/Src/main.c **** 
 286:Core/Src/main.c ****     uint16_t rx3_clean_len = rx3_len;
 287:Core/Src/main.c ****     uint8_t* rx3_clean_buf = trim_leading(' ',rx3_buf, &rx3_clean_len);
 288:Core/Src/main.c **** 
 289:Core/Src/main.c ****     //do_Tx(&huart3, (uint8_t*)rx3_clean_buf, rx3_clean_len);
 290:Core/Src/main.c **** 
 291:Core/Src/main.c ****     uint8_t copy_len = ((rx3_clean_len) < (size)) ? (rx3_clean_len) : (size );
 292:Core/Src/main.c ****     strncpy(result, (char*)rx3_clean_buf, copy_len-1);
 293:Core/Src/main.c ****     result[copy_len-1] = '\0';
 294:Core/Src/main.c ****     return 0;
 295:Core/Src/main.c **** }
 296:Core/Src/main.c **** 
 297:Core/Src/main.c **** int process_hex_input(uint8_t* result, uint8_t* size) {
 298:Core/Src/main.c ****     if(rx3_len <= 1) {
 299:Core/Src/main.c ****       #ifdef Debug
 300:Core/Src/main.c ****       do_Tx(&huart3, (uint8_t*)"Input Error (HEX) !\n", 20) ;
 301:Core/Src/main.c ****       #endif
 302:Core/Src/main.c ****       return 1;
 303:Core/Src/main.c ****     }
 304:Core/Src/main.c **** 
 305:Core/Src/main.c ****     uint16_t rx3_clean_len = rx3_len;
 306:Core/Src/main.c ****     uint8_t* rx3_clean_buf = trim_leading(0xFF, rx3_buf, &rx3_clean_len);
 307:Core/Src/main.c **** 
 308:Core/Src/main.c ****     //do_Tx(&huart3, (uint8_t*)rx3_clean_buf, rx3_clean_len); //Since HEX, provides WIERD ASCII
 309:Core/Src/main.c **** 
 310:Core/Src/main.c ****     memset(result,0,*size);
 311:Core/Src/main.c ****     uint8_t copy_len = ((rx3_clean_len) < (*size)) ? (rx3_clean_len) : (*size);
 312:Core/Src/main.c ****     memcpy(result, rx3_clean_buf, copy_len);
 313:Core/Src/main.c ****     *size = copy_len;
 314:Core/Src/main.c ****     return 0;
 315:Core/Src/main.c **** }
 316:Core/Src/main.c **** 
 317:Core/Src/main.c **** /* USER CODE END 0 */
ARM GAS  /tmp/ccVvSPo8.s 			page 7


 318:Core/Src/main.c **** 
 319:Core/Src/main.c **** /**
 320:Core/Src/main.c ****   * @brief  The application entry point.
 321:Core/Src/main.c ****   * @retval int
 322:Core/Src/main.c ****   */
 323:Core/Src/main.c **** int main(void)
 324:Core/Src/main.c **** {
 325:Core/Src/main.c **** 
 326:Core/Src/main.c ****   /* USER CODE BEGIN 1 */
 327:Core/Src/main.c **** 
 328:Core/Src/main.c ****   /* USER CODE END 1 */
 329:Core/Src/main.c **** 
 330:Core/Src/main.c ****   /* MPU Configuration--------------------------------------------------------*/
 331:Core/Src/main.c ****   MPU_Config();
 332:Core/Src/main.c **** 
 333:Core/Src/main.c ****   /* MCU Configuration--------------------------------------------------------*/
 334:Core/Src/main.c **** 
 335:Core/Src/main.c ****   /* Reset of all peripherals, Initializes the Flash interface and the Systick. */
 336:Core/Src/main.c ****   HAL_Init();
 337:Core/Src/main.c **** 
 338:Core/Src/main.c ****   /* USER CODE BEGIN Init */
 339:Core/Src/main.c ****   /* USER CODE END Init */
 340:Core/Src/main.c **** 
 341:Core/Src/main.c ****   /* Configure the system clock */
 342:Core/Src/main.c ****   SystemClock_Config();
 343:Core/Src/main.c **** 
 344:Core/Src/main.c ****   /* USER CODE BEGIN SysInit */
 345:Core/Src/main.c **** 
 346:Core/Src/main.c ****   /* USER CODE END SysInit */
 347:Core/Src/main.c **** 
 348:Core/Src/main.c ****   /* Initialize all configured peripherals */
 349:Core/Src/main.c ****   MX_GPIO_Init();
 350:Core/Src/main.c ****   MX_DMA_Init();
 351:Core/Src/main.c ****   MX_USART3_UART_Init();
 352:Core/Src/main.c ****   /* USER CODE BEGIN 2 */
 353:Core/Src/main.c ****   State state = Default;
 354:Core/Src/main.c ****   bool append = false;
 355:Core/Src/main.c ****   HAL_UART_Transmit_DMA(&huart3, (uint8_t*)"Startup...\n", 11);
 356:Core/Src/main.c ****   HAL_UARTEx_ReceiveToIdle_DMA(&huart3, rx3_buf, RX3_BUF_SIZE);
 357:Core/Src/main.c ****   for(int i = 0; i < GPIO_PINS_Len; i++) {
 358:Core/Src/main.c ****     set_pin_input(Pins[i]);
 359:Core/Src/main.c ****   }
 360:Core/Src/main.c ****   /* USER CODE END 2 */
 361:Core/Src/main.c **** 
 362:Core/Src/main.c ****   /* Infinite loop */
 363:Core/Src/main.c ****   /* USER CODE BEGIN WHILE */
 364:Core/Src/main.c ****   while (1)
 365:Core/Src/main.c ****   {
 366:Core/Src/main.c ****     switch (state) {
 367:Core/Src/main.c ****       case Default:
 368:Core/Src/main.c ****         while(1) {
 369:Core/Src/main.c ****           if(rx3_done == true) {
 370:Core/Src/main.c ****             rx3_done = false;
 371:Core/Src/main.c ****             #ifdef Debug
 372:Core/Src/main.c ****             do_Tx(&huart3, rx3_buf, rx3_len);
 373:Core/Src/main.c ****             #endif /* ifdef Debug */
 374:Core/Src/main.c ****             #define CMD_SIZE 5
ARM GAS  /tmp/ccVvSPo8.s 			page 8


 375:Core/Src/main.c ****             char cmd[CMD_SIZE];
 376:Core/Src/main.c ****             if (process_ascii_input(cmd,CMD_SIZE) != 0)
 377:Core/Src/main.c ****               break;                
 378:Core/Src/main.c **** 
 379:Core/Src/main.c ****             if (strcmp(cmd,"go") == 0) {
 380:Core/Src/main.c ****               state = Start;
 381:Core/Src/main.c ****               break;
 382:Core/Src/main.c ****             }
 383:Core/Src/main.c ****             else if(strcmp(cmd,"conf") == 0) {
 384:Core/Src/main.c ****               state = Configure_Pins;
 385:Core/Src/main.c ****               break;
 386:Core/Src/main.c ****             }
 387:Core/Src/main.c ****             else if(strcmp(cmd,"cont") == 0) {
 388:Core/Src/main.c ****               state = Continue;
 389:Core/Src/main.c ****               break;
 390:Core/Src/main.c ****             }
 391:Core/Src/main.c ****             else 
 392:Core/Src/main.c ****              break; 
 393:Core/Src/main.c ****           }
 394:Core/Src/main.c ****         }
 395:Core/Src/main.c ****       break;
 396:Core/Src/main.c **** 
 397:Core/Src/main.c ****       case Echo:
 398:Core/Src/main.c ****         while(1) {
 399:Core/Src/main.c ****           if (rx3_done == true) {
 400:Core/Src/main.c ****             rx3_done = false;
 401:Core/Src/main.c ****             do_Tx(&huart3, rx3_buf, rx3_len);
 402:Core/Src/main.c ****             HAL_Delay(50);
 403:Core/Src/main.c ****           }
 404:Core/Src/main.c ****         }
 405:Core/Src/main.c ****       break;
 406:Core/Src/main.c **** 
 407:Core/Src/main.c ****       case Configure_Pins:
 408:Core/Src/main.c ****         #ifdef Debug
 409:Core/Src/main.c ****         do_Tx(&huart3, (uint8_t*)"Config Pins\n", 12);
 410:Core/Src/main.c ****         #endif /* ifdef Debug */
 411:Core/Src/main.c ****         do_Tx(&huart3, (uint8_t*)"conf ACK\n",9);
 412:Core/Src/main.c ****         while(1) {
 413:Core/Src/main.c ****           if(rx3_done == true) {
 414:Core/Src/main.c ****             rx3_done = false;
 415:Core/Src/main.c ****             uint8_t config_size = 64;
 416:Core/Src/main.c ****             uint8_t config_data[config_size];
 417:Core/Src/main.c ****             if (process_hex_input(config_data, &config_size) != 0)
 418:Core/Src/main.c ****               break;
 419:Core/Src/main.c ****             if (apply_pin_config(config_data, config_size, append) != 0)
 420:Core/Src/main.c ****               break;
 421:Core/Src/main.c ****             #ifdef Debug
 422:Core/Src/main.c ****             do_Tx(&huart3, (uint8_t*)"Config Successfull\n", 19);
 423:Core/Src/main.c ****             #endif
 424:Core/Src/main.c ****             do_Tx(&huart3, (uint8_t*)"ACK\n",4);
 425:Core/Src/main.c ****             state = Default;
 426:Core/Src/main.c ****             append = false;
 427:Core/Src/main.c ****             break;
 428:Core/Src/main.c ****           }
 429:Core/Src/main.c ****         }
 430:Core/Src/main.c ****       
 431:Core/Src/main.c ****       break;
ARM GAS  /tmp/ccVvSPo8.s 			page 9


 432:Core/Src/main.c ****       case Continue: 
 433:Core/Src/main.c ****         do_Tx(&huart3, (uint8_t*)"cont ACK\n",9);
 434:Core/Src/main.c ****         append = true;
 435:Core/Src/main.c ****         state = Configure_Pins;
 436:Core/Src/main.c ****       break;
 437:Core/Src/main.c ****       case Start:
 438:Core/Src/main.c ****           #ifdef Debug
 439:Core/Src/main.c ****           do_Tx(&huart3, (uint8_t*)"Run Check\n", 10);
 440:Core/Src/main.c ****           #endif
 441:Core/Src/main.c ****           if (Output_Pins_len < 1 || Input_Pins_len < 1) {
 442:Core/Src/main.c ****               #ifdef Debug
 443:Core/Src/main.c ****               do_Tx(&huart3, (uint8_t*)"Pins not configured\n", 21);
 444:Core/Src/main.c ****               #endif /* ifdef Debug */
 445:Core/Src/main.c ****               do_Tx(&huart3, (uint8_t*)"go NACK\n", 8);
 446:Core/Src/main.c ****               state = Default;
 447:Core/Src/main.c ****               break;
 448:Core/Src/main.c ****           }
 449:Core/Src/main.c ****           conn_msg[0] = '\0';
 450:Core/Src/main.c ****           char conn_unit[7];
 451:Core/Src/main.c **** 
 452:Core/Src/main.c ****           for(uint8_t i = 0; i < Output_Pins_len; i++) {
 453:Core/Src/main.c ****             set_pin_output(Output_Pins[i]);
 454:Core/Src/main.c ****             HAL_GPIO_WritePin(Output_Pins[i].Letter, Output_Pins[i].Number, GPIO_PIN_SET);
 455:Core/Src/main.c ****             sprintf(conn_unit, "%d:", Output_Pins[i].index);
 456:Core/Src/main.c ****             strcat((char*)conn_msg,conn_unit);
 457:Core/Src/main.c **** 
 458:Core/Src/main.c ****             for(int k = 0; k < GPIO_PINS_Len; k++) {
 459:Core/Src/main.c ****               if ((HAL_GPIO_ReadPin(Pins[k].Letter, Pins[k].Number) == GPIO_PIN_SET) && (Pins[k].in
 460:Core/Src/main.c ****                 sprintf(conn_unit, "%d,", Pins[k].index);
 461:Core/Src/main.c ****                 strcat((char*)conn_msg,conn_unit);
 462:Core/Src/main.c ****               } 
 463:Core/Src/main.c ****             }
 464:Core/Src/main.c **** 
 465:Core/Src/main.c ****             HAL_GPIO_WritePin(Output_Pins[i].Letter, Output_Pins[i].Number, GPIO_PIN_RESET);
 466:Core/Src/main.c ****             set_pin_input(Output_Pins[i]);
 467:Core/Src/main.c ****             strcat((char*)conn_msg,"\n");
 468:Core/Src/main.c ****           }
 469:Core/Src/main.c ****           do_Tx(&huart3, conn_msg, strlen((char*)conn_msg));
 470:Core/Src/main.c ****           do_Tx(&huart3, (uint8_t*)"go ACK\n",7);
 471:Core/Src/main.c ****           state = Default;
 472:Core/Src/main.c ****       break;
 473:Core/Src/main.c ****     }
 474:Core/Src/main.c ****     /* USER CODE END WHILE */
 475:Core/Src/main.c **** 
 476:Core/Src/main.c ****     /* USER CODE BEGIN 3 */
 477:Core/Src/main.c ****   }
 478:Core/Src/main.c ****   /* USER CODE END 3 */
 479:Core/Src/main.c **** }
 480:Core/Src/main.c **** 
 481:Core/Src/main.c **** /**
 482:Core/Src/main.c ****   * @brief System Clock Configuration
 483:Core/Src/main.c ****   * @retval None
 484:Core/Src/main.c ****   */
 485:Core/Src/main.c **** void SystemClock_Config(void)
 486:Core/Src/main.c **** {
 487:Core/Src/main.c ****   RCC_OscInitTypeDef RCC_OscInitStruct = {0};
 488:Core/Src/main.c ****   RCC_ClkInitTypeDef RCC_ClkInitStruct = {0};
ARM GAS  /tmp/ccVvSPo8.s 			page 10


 489:Core/Src/main.c **** 
 490:Core/Src/main.c ****   /** Supply configuration update enable
 491:Core/Src/main.c ****   */
 492:Core/Src/main.c ****   HAL_PWREx_ConfigSupply(PWR_LDO_SUPPLY);
 493:Core/Src/main.c **** 
 494:Core/Src/main.c ****   /** Configure the main internal regulator output voltage
 495:Core/Src/main.c ****   */
 496:Core/Src/main.c ****   __HAL_PWR_VOLTAGESCALING_CONFIG(PWR_REGULATOR_VOLTAGE_SCALE3);
 497:Core/Src/main.c **** 
 498:Core/Src/main.c ****   while(!__HAL_PWR_GET_FLAG(PWR_FLAG_VOSRDY)) {}
 499:Core/Src/main.c **** 
 500:Core/Src/main.c ****   /** Initializes the RCC Oscillators according to the specified parameters
 501:Core/Src/main.c ****   * in the RCC_OscInitTypeDef structure.
 502:Core/Src/main.c ****   */
 503:Core/Src/main.c ****   RCC_OscInitStruct.OscillatorType = RCC_OSCILLATORTYPE_HSI;
 504:Core/Src/main.c ****   RCC_OscInitStruct.HSIState = RCC_HSI_DIV1;
 505:Core/Src/main.c ****   RCC_OscInitStruct.HSICalibrationValue = RCC_HSICALIBRATION_DEFAULT;
 506:Core/Src/main.c ****   RCC_OscInitStruct.PLL.PLLState = RCC_PLL_NONE;
 507:Core/Src/main.c ****   if (HAL_RCC_OscConfig(&RCC_OscInitStruct) != HAL_OK)
 508:Core/Src/main.c ****   {
 509:Core/Src/main.c ****     Error_Handler();
 510:Core/Src/main.c ****   }
 511:Core/Src/main.c **** 
 512:Core/Src/main.c ****   /** Initializes the CPU, AHB and APB buses clocks
 513:Core/Src/main.c ****   */
 514:Core/Src/main.c ****   RCC_ClkInitStruct.ClockType = RCC_CLOCKTYPE_HCLK|RCC_CLOCKTYPE_SYSCLK
 515:Core/Src/main.c ****                               |RCC_CLOCKTYPE_PCLK1|RCC_CLOCKTYPE_PCLK2
 516:Core/Src/main.c ****                               |RCC_CLOCKTYPE_D3PCLK1|RCC_CLOCKTYPE_D1PCLK1;
 517:Core/Src/main.c ****   RCC_ClkInitStruct.SYSCLKSource = RCC_SYSCLKSOURCE_HSI;
 518:Core/Src/main.c ****   RCC_ClkInitStruct.SYSCLKDivider = RCC_SYSCLK_DIV1;
 519:Core/Src/main.c ****   RCC_ClkInitStruct.AHBCLKDivider = RCC_HCLK_DIV1;
 520:Core/Src/main.c ****   RCC_ClkInitStruct.APB3CLKDivider = RCC_APB3_DIV1;
 521:Core/Src/main.c ****   RCC_ClkInitStruct.APB1CLKDivider = RCC_APB1_DIV2;
 522:Core/Src/main.c ****   RCC_ClkInitStruct.APB2CLKDivider = RCC_APB2_DIV1;
 523:Core/Src/main.c ****   RCC_ClkInitStruct.APB4CLKDivider = RCC_APB4_DIV1;
 524:Core/Src/main.c **** 
 525:Core/Src/main.c ****   if (HAL_RCC_ClockConfig(&RCC_ClkInitStruct, FLASH_LATENCY_1) != HAL_OK)
 526:Core/Src/main.c ****   {
 527:Core/Src/main.c ****     Error_Handler();
 528:Core/Src/main.c ****   }
 529:Core/Src/main.c **** }
 530:Core/Src/main.c **** 
 531:Core/Src/main.c **** /**
 532:Core/Src/main.c ****   * @brief USART3 Initialization Function
 533:Core/Src/main.c ****   * @param None
 534:Core/Src/main.c ****   * @retval None
 535:Core/Src/main.c ****   */
 536:Core/Src/main.c **** static void MX_USART3_UART_Init(void)
 537:Core/Src/main.c **** {
 538:Core/Src/main.c **** 
 539:Core/Src/main.c ****   /* USER CODE BEGIN USART3_Init 0 */
 540:Core/Src/main.c **** 
 541:Core/Src/main.c ****   /* USER CODE END USART3_Init 0 */
 542:Core/Src/main.c **** 
 543:Core/Src/main.c ****   /* USER CODE BEGIN USART3_Init 1 */
 544:Core/Src/main.c **** 
 545:Core/Src/main.c ****   /* USER CODE END USART3_Init 1 */
ARM GAS  /tmp/ccVvSPo8.s 			page 11


 546:Core/Src/main.c ****   huart3.Instance = USART3;
 547:Core/Src/main.c ****   huart3.Init.BaudRate = 115200;
 548:Core/Src/main.c ****   huart3.Init.WordLength = UART_WORDLENGTH_8B;
 549:Core/Src/main.c ****   huart3.Init.StopBits = UART_STOPBITS_1;
 550:Core/Src/main.c ****   huart3.Init.Parity = UART_PARITY_NONE;
 551:Core/Src/main.c ****   huart3.Init.Mode = UART_MODE_TX_RX;
 552:Core/Src/main.c ****   huart3.Init.HwFlowCtl = UART_HWCONTROL_NONE;
 553:Core/Src/main.c ****   huart3.Init.OverSampling = UART_OVERSAMPLING_16;
 554:Core/Src/main.c ****   huart3.Init.OneBitSampling = UART_ONE_BIT_SAMPLE_DISABLE;
 555:Core/Src/main.c ****   huart3.Init.ClockPrescaler = UART_PRESCALER_DIV1;
 556:Core/Src/main.c ****   huart3.AdvancedInit.AdvFeatureInit = UART_ADVFEATURE_RXOVERRUNDISABLE_INIT|UART_ADVFEATURE_DMADIS
 557:Core/Src/main.c ****   huart3.AdvancedInit.OverrunDisable = UART_ADVFEATURE_OVERRUN_DISABLE;
 558:Core/Src/main.c ****   huart3.AdvancedInit.DMADisableonRxError = UART_ADVFEATURE_DMA_DISABLEONRXERROR;
 559:Core/Src/main.c ****   if (HAL_UART_Init(&huart3) != HAL_OK)
 560:Core/Src/main.c ****   {
 561:Core/Src/main.c ****     Error_Handler();
 562:Core/Src/main.c ****   }
 563:Core/Src/main.c ****   if (HAL_UARTEx_SetTxFifoThreshold(&huart3, UART_TXFIFO_THRESHOLD_1_8) != HAL_OK)
 564:Core/Src/main.c ****   {
 565:Core/Src/main.c ****     Error_Handler();
 566:Core/Src/main.c ****   }
 567:Core/Src/main.c ****   if (HAL_UARTEx_SetRxFifoThreshold(&huart3, UART_RXFIFO_THRESHOLD_1_8) != HAL_OK)
 568:Core/Src/main.c ****   {
 569:Core/Src/main.c ****     Error_Handler();
 570:Core/Src/main.c ****   }
 571:Core/Src/main.c ****   if (HAL_UARTEx_DisableFifoMode(&huart3) != HAL_OK)
 572:Core/Src/main.c ****   {
 573:Core/Src/main.c ****     Error_Handler();
 574:Core/Src/main.c ****   }
 575:Core/Src/main.c ****   /* USER CODE BEGIN USART3_Init 2 */
 576:Core/Src/main.c **** 
 577:Core/Src/main.c ****   /* USER CODE END USART3_Init 2 */
 578:Core/Src/main.c **** 
 579:Core/Src/main.c **** }
 580:Core/Src/main.c **** 
 581:Core/Src/main.c **** /**
 582:Core/Src/main.c ****   * Enable DMA controller clock
 583:Core/Src/main.c ****   */
 584:Core/Src/main.c **** static void MX_DMA_Init(void)
 585:Core/Src/main.c **** {
 586:Core/Src/main.c **** 
 587:Core/Src/main.c ****   /* DMA controller clock enable */
 588:Core/Src/main.c ****   __HAL_RCC_DMA1_CLK_ENABLE();
 589:Core/Src/main.c **** 
 590:Core/Src/main.c ****   /* DMA interrupt init */
 591:Core/Src/main.c ****   /* DMA1_Stream0_IRQn interrupt configuration */
 592:Core/Src/main.c ****   HAL_NVIC_SetPriority(DMA1_Stream0_IRQn, 0, 0);
 593:Core/Src/main.c ****   HAL_NVIC_EnableIRQ(DMA1_Stream0_IRQn);
 594:Core/Src/main.c ****   /* DMA1_Stream1_IRQn interrupt configuration */
 595:Core/Src/main.c ****   HAL_NVIC_SetPriority(DMA1_Stream1_IRQn, 0, 0);
 596:Core/Src/main.c ****   HAL_NVIC_EnableIRQ(DMA1_Stream1_IRQn);
 597:Core/Src/main.c **** 
 598:Core/Src/main.c **** }
 599:Core/Src/main.c **** 
 600:Core/Src/main.c **** /**
 601:Core/Src/main.c ****   * @brief GPIO Initialization Function
 602:Core/Src/main.c ****   * @param None
ARM GAS  /tmp/ccVvSPo8.s 			page 12


 603:Core/Src/main.c ****   * @retval None
 604:Core/Src/main.c ****   */
 605:Core/Src/main.c **** static void MX_GPIO_Init(void)
 606:Core/Src/main.c **** {
  27              		.loc 1 606 1 view -0
  28              		.cfi_startproc
  29              		@ args = 0, pretend = 0, frame = 48
  30              		@ frame_needed = 0, uses_anonymous_args = 0
  31 0000 F0B5     		push	{r4, r5, r6, r7, lr}
  32              	.LCFI0:
  33              		.cfi_def_cfa_offset 20
  34              		.cfi_offset 4, -20
  35              		.cfi_offset 5, -16
  36              		.cfi_offset 6, -12
  37              		.cfi_offset 7, -8
  38              		.cfi_offset 14, -4
  39 0002 8DB0     		sub	sp, sp, #52
  40              	.LCFI1:
  41              		.cfi_def_cfa_offset 72
 607:Core/Src/main.c ****   GPIO_InitTypeDef GPIO_InitStruct = {0};
  42              		.loc 1 607 3 view .LVU1
  43              		.loc 1 607 20 is_stmt 0 view .LVU2
  44 0004 0024     		movs	r4, #0
  45 0006 0A94     		str	r4, [sp, #40]
  46 0008 0B94     		str	r4, [sp, #44]
 608:Core/Src/main.c ****   /* USER CODE BEGIN MX_GPIO_Init_1 */
 609:Core/Src/main.c **** 
 610:Core/Src/main.c ****   /* USER CODE END MX_GPIO_Init_1 */
 611:Core/Src/main.c **** 
 612:Core/Src/main.c ****   /* GPIO Ports Clock Enable */
 613:Core/Src/main.c ****   __HAL_RCC_GPIOE_CLK_ENABLE();
  47              		.loc 1 613 3 is_stmt 1 view .LVU3
  48              	.LBB4:
  49              		.loc 1 613 3 view .LVU4
  50              		.loc 1 613 3 view .LVU5
  51 000a 634B     		ldr	r3, .L3
  52 000c D3F8E020 		ldr	r2, [r3, #224]
  53 0010 42F01002 		orr	r2, r2, #16
  54 0014 C3F8E020 		str	r2, [r3, #224]
  55              		.loc 1 613 3 view .LVU6
  56 0018 D3F8E020 		ldr	r2, [r3, #224]
  57 001c 02F01002 		and	r2, r2, #16
  58 0020 0092     		str	r2, [sp]
  59              		.loc 1 613 3 view .LVU7
  60 0022 009A     		ldr	r2, [sp]
  61              	.LBE4:
  62              		.loc 1 613 3 view .LVU8
 614:Core/Src/main.c ****   __HAL_RCC_GPIOF_CLK_ENABLE();
  63              		.loc 1 614 3 view .LVU9
  64              	.LBB5:
  65              		.loc 1 614 3 view .LVU10
  66              		.loc 1 614 3 view .LVU11
  67 0024 D3F8E020 		ldr	r2, [r3, #224]
  68 0028 42F02002 		orr	r2, r2, #32
  69 002c C3F8E020 		str	r2, [r3, #224]
  70              		.loc 1 614 3 view .LVU12
  71 0030 D3F8E020 		ldr	r2, [r3, #224]
ARM GAS  /tmp/ccVvSPo8.s 			page 13


  72 0034 02F02002 		and	r2, r2, #32
  73 0038 0192     		str	r2, [sp, #4]
  74              		.loc 1 614 3 view .LVU13
  75 003a 019A     		ldr	r2, [sp, #4]
  76              	.LBE5:
  77              		.loc 1 614 3 view .LVU14
 615:Core/Src/main.c ****   __HAL_RCC_GPIOC_CLK_ENABLE();
  78              		.loc 1 615 3 view .LVU15
  79              	.LBB6:
  80              		.loc 1 615 3 view .LVU16
  81              		.loc 1 615 3 view .LVU17
  82 003c D3F8E020 		ldr	r2, [r3, #224]
  83 0040 42F00402 		orr	r2, r2, #4
  84 0044 C3F8E020 		str	r2, [r3, #224]
  85              		.loc 1 615 3 view .LVU18
  86 0048 D3F8E020 		ldr	r2, [r3, #224]
  87 004c 02F00402 		and	r2, r2, #4
  88 0050 0292     		str	r2, [sp, #8]
  89              		.loc 1 615 3 view .LVU19
  90 0052 029A     		ldr	r2, [sp, #8]
  91              	.LBE6:
  92              		.loc 1 615 3 view .LVU20
 616:Core/Src/main.c ****   __HAL_RCC_GPIOA_CLK_ENABLE();
  93              		.loc 1 616 3 view .LVU21
  94              	.LBB7:
  95              		.loc 1 616 3 view .LVU22
  96              		.loc 1 616 3 view .LVU23
  97 0054 D3F8E020 		ldr	r2, [r3, #224]
  98 0058 42F00102 		orr	r2, r2, #1
  99 005c C3F8E020 		str	r2, [r3, #224]
 100              		.loc 1 616 3 view .LVU24
 101 0060 D3F8E020 		ldr	r2, [r3, #224]
 102 0064 02F00102 		and	r2, r2, #1
 103 0068 0392     		str	r2, [sp, #12]
 104              		.loc 1 616 3 view .LVU25
 105 006a 039A     		ldr	r2, [sp, #12]
 106              	.LBE7:
 107              		.loc 1 616 3 view .LVU26
 617:Core/Src/main.c ****   __HAL_RCC_GPIOB_CLK_ENABLE();
 108              		.loc 1 617 3 view .LVU27
 109              	.LBB8:
 110              		.loc 1 617 3 view .LVU28
 111              		.loc 1 617 3 view .LVU29
 112 006c D3F8E020 		ldr	r2, [r3, #224]
 113 0070 42F00202 		orr	r2, r2, #2
 114 0074 C3F8E020 		str	r2, [r3, #224]
 115              		.loc 1 617 3 view .LVU30
 116 0078 D3F8E020 		ldr	r2, [r3, #224]
 117 007c 02F00202 		and	r2, r2, #2
 118 0080 0492     		str	r2, [sp, #16]
 119              		.loc 1 617 3 view .LVU31
 120 0082 049A     		ldr	r2, [sp, #16]
 121              	.LBE8:
 122              		.loc 1 617 3 view .LVU32
 618:Core/Src/main.c ****   __HAL_RCC_GPIOG_CLK_ENABLE();
 123              		.loc 1 618 3 view .LVU33
 124              	.LBB9:
ARM GAS  /tmp/ccVvSPo8.s 			page 14


 125              		.loc 1 618 3 view .LVU34
 126              		.loc 1 618 3 view .LVU35
 127 0084 D3F8E020 		ldr	r2, [r3, #224]
 128 0088 42F04002 		orr	r2, r2, #64
 129 008c C3F8E020 		str	r2, [r3, #224]
 130              		.loc 1 618 3 view .LVU36
 131 0090 D3F8E020 		ldr	r2, [r3, #224]
 132 0094 02F04002 		and	r2, r2, #64
 133 0098 0592     		str	r2, [sp, #20]
 134              		.loc 1 618 3 view .LVU37
 135 009a 059A     		ldr	r2, [sp, #20]
 136              	.LBE9:
 137              		.loc 1 618 3 view .LVU38
 619:Core/Src/main.c ****   __HAL_RCC_GPIOD_CLK_ENABLE();
 138              		.loc 1 619 3 view .LVU39
 139              	.LBB10:
 140              		.loc 1 619 3 view .LVU40
 141              		.loc 1 619 3 view .LVU41
 142 009c D3F8E020 		ldr	r2, [r3, #224]
 143 00a0 42F00802 		orr	r2, r2, #8
 144 00a4 C3F8E020 		str	r2, [r3, #224]
 145              		.loc 1 619 3 view .LVU42
 146 00a8 D3F8E030 		ldr	r3, [r3, #224]
 147 00ac 03F00803 		and	r3, r3, #8
 148 00b0 0693     		str	r3, [sp, #24]
 149              		.loc 1 619 3 view .LVU43
 150 00b2 069B     		ldr	r3, [sp, #24]
 151              	.LBE10:
 152              		.loc 1 619 3 view .LVU44
 620:Core/Src/main.c **** 
 621:Core/Src/main.c ****   /*Configure GPIO pins : PE2 PE3 PE4 PE5
 622:Core/Src/main.c ****                            PE6 PE7 PE9 PE10
 623:Core/Src/main.c ****                            PE11 PE12 PE13 PE14
 624:Core/Src/main.c ****                            PE15 PE0 PE1 */
 625:Core/Src/main.c ****   GPIO_InitStruct.Pin = GPIO_PIN_2|GPIO_PIN_3|GPIO_PIN_4|GPIO_PIN_5
 153              		.loc 1 625 3 view .LVU45
 154              		.loc 1 625 23 is_stmt 0 view .LVU46
 155 00b4 4FF6FF63 		movw	r3, #65279
 156 00b8 0793     		str	r3, [sp, #28]
 626:Core/Src/main.c ****                           |GPIO_PIN_6|GPIO_PIN_7|GPIO_PIN_9|GPIO_PIN_10
 627:Core/Src/main.c ****                           |GPIO_PIN_11|GPIO_PIN_12|GPIO_PIN_13|GPIO_PIN_14
 628:Core/Src/main.c ****                           |GPIO_PIN_15|GPIO_PIN_0|GPIO_PIN_1;
 629:Core/Src/main.c ****   GPIO_InitStruct.Mode = GPIO_MODE_INPUT;
 157              		.loc 1 629 3 is_stmt 1 view .LVU47
 158              		.loc 1 629 24 is_stmt 0 view .LVU48
 159 00ba 0894     		str	r4, [sp, #32]
 630:Core/Src/main.c ****   GPIO_InitStruct.Pull = GPIO_PULLDOWN;
 160              		.loc 1 630 3 is_stmt 1 view .LVU49
 161              		.loc 1 630 24 is_stmt 0 view .LVU50
 162 00bc 0225     		movs	r5, #2
 163 00be 0995     		str	r5, [sp, #36]
 631:Core/Src/main.c ****   HAL_GPIO_Init(GPIOE, &GPIO_InitStruct);
 164              		.loc 1 631 3 is_stmt 1 view .LVU51
 165 00c0 364F     		ldr	r7, .L3+4
 166 00c2 07A9     		add	r1, sp, #28
 167 00c4 3846     		mov	r0, r7
 168 00c6 FFF7FEFF 		bl	HAL_GPIO_Init
ARM GAS  /tmp/ccVvSPo8.s 			page 15


 169              	.LVL0:
 632:Core/Src/main.c **** 
 633:Core/Src/main.c ****   /*Configure GPIO pins : PF0 PF1 PF2 PF3
 634:Core/Src/main.c ****                            PF8 PF9 PF10 PF11
 635:Core/Src/main.c ****                            PF12 PF13 PF14 PF15 */
 636:Core/Src/main.c ****   GPIO_InitStruct.Pin = GPIO_PIN_0|GPIO_PIN_1|GPIO_PIN_2|GPIO_PIN_3
 170              		.loc 1 636 3 view .LVU52
 171              		.loc 1 636 23 is_stmt 0 view .LVU53
 172 00ca 4FF60F73 		movw	r3, #65295
 173 00ce 0793     		str	r3, [sp, #28]
 637:Core/Src/main.c ****                           |GPIO_PIN_8|GPIO_PIN_9|GPIO_PIN_10|GPIO_PIN_11
 638:Core/Src/main.c ****                           |GPIO_PIN_12|GPIO_PIN_13|GPIO_PIN_14|GPIO_PIN_15;
 639:Core/Src/main.c ****   GPIO_InitStruct.Mode = GPIO_MODE_INPUT;
 174              		.loc 1 639 3 is_stmt 1 view .LVU54
 175              		.loc 1 639 24 is_stmt 0 view .LVU55
 176 00d0 0894     		str	r4, [sp, #32]
 640:Core/Src/main.c ****   GPIO_InitStruct.Pull = GPIO_PULLDOWN;
 177              		.loc 1 640 3 is_stmt 1 view .LVU56
 178              		.loc 1 640 24 is_stmt 0 view .LVU57
 179 00d2 0995     		str	r5, [sp, #36]
 641:Core/Src/main.c ****   HAL_GPIO_Init(GPIOF, &GPIO_InitStruct);
 180              		.loc 1 641 3 is_stmt 1 view .LVU58
 181 00d4 324E     		ldr	r6, .L3+8
 182 00d6 07A9     		add	r1, sp, #28
 183 00d8 3046     		mov	r0, r6
 184 00da FFF7FEFF 		bl	HAL_GPIO_Init
 185              	.LVL1:
 642:Core/Src/main.c **** 
 643:Core/Src/main.c ****   /*Configure GPIO pins : PF4 PF6 PF7 */
 644:Core/Src/main.c ****   GPIO_InitStruct.Pin = GPIO_PIN_4|GPIO_PIN_6|GPIO_PIN_7;
 186              		.loc 1 644 3 view .LVU59
 187              		.loc 1 644 23 is_stmt 0 view .LVU60
 188 00de D023     		movs	r3, #208
 189 00e0 0793     		str	r3, [sp, #28]
 645:Core/Src/main.c ****   GPIO_InitStruct.Mode = GPIO_MODE_INPUT;
 190              		.loc 1 645 3 is_stmt 1 view .LVU61
 191              		.loc 1 645 24 is_stmt 0 view .LVU62
 192 00e2 0894     		str	r4, [sp, #32]
 646:Core/Src/main.c ****   GPIO_InitStruct.Pull = GPIO_NOPULL;
 193              		.loc 1 646 3 is_stmt 1 view .LVU63
 194              		.loc 1 646 24 is_stmt 0 view .LVU64
 195 00e4 0994     		str	r4, [sp, #36]
 647:Core/Src/main.c ****   HAL_GPIO_Init(GPIOF, &GPIO_InitStruct);
 196              		.loc 1 647 3 is_stmt 1 view .LVU65
 197 00e6 07A9     		add	r1, sp, #28
 198 00e8 3046     		mov	r0, r6
 199 00ea FFF7FEFF 		bl	HAL_GPIO_Init
 200              	.LVL2:
 648:Core/Src/main.c **** 
 649:Core/Src/main.c ****   /*Configure GPIO pin : PC0 */
 650:Core/Src/main.c ****   GPIO_InitStruct.Pin = GPIO_PIN_0;
 201              		.loc 1 650 3 view .LVU66
 202              		.loc 1 650 23 is_stmt 0 view .LVU67
 203 00ee 0123     		movs	r3, #1
 204 00f0 0793     		str	r3, [sp, #28]
 651:Core/Src/main.c ****   GPIO_InitStruct.Mode = GPIO_MODE_INPUT;
 205              		.loc 1 651 3 is_stmt 1 view .LVU68
ARM GAS  /tmp/ccVvSPo8.s 			page 16


 206              		.loc 1 651 24 is_stmt 0 view .LVU69
 207 00f2 0894     		str	r4, [sp, #32]
 652:Core/Src/main.c ****   GPIO_InitStruct.Pull = GPIO_PULLDOWN;
 208              		.loc 1 652 3 is_stmt 1 view .LVU70
 209              		.loc 1 652 24 is_stmt 0 view .LVU71
 210 00f4 0995     		str	r5, [sp, #36]
 653:Core/Src/main.c ****   HAL_GPIO_Init(GPIOC, &GPIO_InitStruct);
 211              		.loc 1 653 3 is_stmt 1 view .LVU72
 212 00f6 A6F54066 		sub	r6, r6, #3072
 213 00fa 07A9     		add	r1, sp, #28
 214 00fc 3046     		mov	r0, r6
 215 00fe FFF7FEFF 		bl	HAL_GPIO_Init
 216              	.LVL3:
 654:Core/Src/main.c **** 
 655:Core/Src/main.c ****   /*Configure GPIO pins : PC2 PC3 PC6 PC8
 656:Core/Src/main.c ****                            PC9 PC10 PC11 PC12 */
 657:Core/Src/main.c ****   GPIO_InitStruct.Pin = GPIO_PIN_2|GPIO_PIN_3|GPIO_PIN_6|GPIO_PIN_8
 217              		.loc 1 657 3 view .LVU73
 218              		.loc 1 657 23 is_stmt 0 view .LVU74
 219 0102 41F64C73 		movw	r3, #8012
 220 0106 0793     		str	r3, [sp, #28]
 658:Core/Src/main.c ****                           |GPIO_PIN_9|GPIO_PIN_10|GPIO_PIN_11|GPIO_PIN_12;
 659:Core/Src/main.c ****   GPIO_InitStruct.Mode = GPIO_MODE_INPUT;
 221              		.loc 1 659 3 is_stmt 1 view .LVU75
 222              		.loc 1 659 24 is_stmt 0 view .LVU76
 223 0108 0894     		str	r4, [sp, #32]
 660:Core/Src/main.c ****   GPIO_InitStruct.Pull = GPIO_NOPULL;
 224              		.loc 1 660 3 is_stmt 1 view .LVU77
 225              		.loc 1 660 24 is_stmt 0 view .LVU78
 226 010a 0994     		str	r4, [sp, #36]
 661:Core/Src/main.c ****   HAL_GPIO_Init(GPIOC, &GPIO_InitStruct);
 227              		.loc 1 661 3 is_stmt 1 view .LVU79
 228 010c 07A9     		add	r1, sp, #28
 229 010e 3046     		mov	r0, r6
 230 0110 FFF7FEFF 		bl	HAL_GPIO_Init
 231              	.LVL4:
 662:Core/Src/main.c **** 
 663:Core/Src/main.c ****   /*Configure GPIO pins : PA3 PA4 */
 664:Core/Src/main.c ****   GPIO_InitStruct.Pin = GPIO_PIN_3|GPIO_PIN_4;
 232              		.loc 1 664 3 view .LVU80
 233              		.loc 1 664 23 is_stmt 0 view .LVU81
 234 0114 1823     		movs	r3, #24
 235 0116 0793     		str	r3, [sp, #28]
 665:Core/Src/main.c ****   GPIO_InitStruct.Mode = GPIO_MODE_INPUT;
 236              		.loc 1 665 3 is_stmt 1 view .LVU82
 237              		.loc 1 665 24 is_stmt 0 view .LVU83
 238 0118 0894     		str	r4, [sp, #32]
 666:Core/Src/main.c ****   GPIO_InitStruct.Pull = GPIO_PULLDOWN;
 239              		.loc 1 666 3 is_stmt 1 view .LVU84
 240              		.loc 1 666 24 is_stmt 0 view .LVU85
 241 011a 0995     		str	r5, [sp, #36]
 667:Core/Src/main.c ****   HAL_GPIO_Init(GPIOA, &GPIO_InitStruct);
 242              		.loc 1 667 3 is_stmt 1 view .LVU86
 243 011c A6F50066 		sub	r6, r6, #2048
 244 0120 07A9     		add	r1, sp, #28
 245 0122 3046     		mov	r0, r6
 246 0124 FFF7FEFF 		bl	HAL_GPIO_Init
ARM GAS  /tmp/ccVvSPo8.s 			page 17


 247              	.LVL5:
 668:Core/Src/main.c **** 
 669:Core/Src/main.c ****   /*Configure GPIO pins : PA5 PA6 */
 670:Core/Src/main.c ****   GPIO_InitStruct.Pin = GPIO_PIN_5|GPIO_PIN_6;
 248              		.loc 1 670 3 view .LVU87
 249              		.loc 1 670 23 is_stmt 0 view .LVU88
 250 0128 6023     		movs	r3, #96
 251 012a 0793     		str	r3, [sp, #28]
 671:Core/Src/main.c ****   GPIO_InitStruct.Mode = GPIO_MODE_INPUT;
 252              		.loc 1 671 3 is_stmt 1 view .LVU89
 253              		.loc 1 671 24 is_stmt 0 view .LVU90
 254 012c 0894     		str	r4, [sp, #32]
 672:Core/Src/main.c ****   GPIO_InitStruct.Pull = GPIO_NOPULL;
 255              		.loc 1 672 3 is_stmt 1 view .LVU91
 256              		.loc 1 672 24 is_stmt 0 view .LVU92
 257 012e 0994     		str	r4, [sp, #36]
 673:Core/Src/main.c ****   HAL_GPIO_Init(GPIOA, &GPIO_InitStruct);
 258              		.loc 1 673 3 is_stmt 1 view .LVU93
 259 0130 07A9     		add	r1, sp, #28
 260 0132 3046     		mov	r0, r6
 261 0134 FFF7FEFF 		bl	HAL_GPIO_Init
 262              	.LVL6:
 674:Core/Src/main.c **** 
 675:Core/Src/main.c ****   /*Configure GPIO pins : PB1 PB2 PB11 PB7 */
 676:Core/Src/main.c ****   GPIO_InitStruct.Pin = GPIO_PIN_1|GPIO_PIN_2|GPIO_PIN_11|GPIO_PIN_7;
 263              		.loc 1 676 3 view .LVU94
 264              		.loc 1 676 23 is_stmt 0 view .LVU95
 265 0138 40F68603 		movw	r3, #2182
 266 013c 0793     		str	r3, [sp, #28]
 677:Core/Src/main.c ****   GPIO_InitStruct.Mode = GPIO_MODE_INPUT;
 267              		.loc 1 677 3 is_stmt 1 view .LVU96
 268              		.loc 1 677 24 is_stmt 0 view .LVU97
 269 013e 0894     		str	r4, [sp, #32]
 678:Core/Src/main.c ****   GPIO_InitStruct.Pull = GPIO_NOPULL;
 270              		.loc 1 678 3 is_stmt 1 view .LVU98
 271              		.loc 1 678 24 is_stmt 0 view .LVU99
 272 0140 0994     		str	r4, [sp, #36]
 679:Core/Src/main.c ****   HAL_GPIO_Init(GPIOB, &GPIO_InitStruct);
 273              		.loc 1 679 3 is_stmt 1 view .LVU100
 274 0142 06F58066 		add	r6, r6, #1024
 275 0146 07A9     		add	r1, sp, #28
 276 0148 3046     		mov	r0, r6
 277 014a FFF7FEFF 		bl	HAL_GPIO_Init
 278              	.LVL7:
 680:Core/Src/main.c **** 
 681:Core/Src/main.c ****   /*Configure GPIO pins : PG0 PG1 PG2 PG3
 682:Core/Src/main.c ****                            PG4 PG5 PG6 PG8
 683:Core/Src/main.c ****                            PG9 PG10 PG12 PG14
 684:Core/Src/main.c ****                            PG15 */
 685:Core/Src/main.c ****   GPIO_InitStruct.Pin = GPIO_PIN_0|GPIO_PIN_1|GPIO_PIN_2|GPIO_PIN_3
 279              		.loc 1 685 3 view .LVU101
 280              		.loc 1 685 23 is_stmt 0 view .LVU102
 281 014e 4DF27F73 		movw	r3, #55167
 282 0152 0793     		str	r3, [sp, #28]
 686:Core/Src/main.c ****                           |GPIO_PIN_4|GPIO_PIN_5|GPIO_PIN_6|GPIO_PIN_8
 687:Core/Src/main.c ****                           |GPIO_PIN_9|GPIO_PIN_10|GPIO_PIN_12|GPIO_PIN_14
 688:Core/Src/main.c ****                           |GPIO_PIN_15;
ARM GAS  /tmp/ccVvSPo8.s 			page 18


 689:Core/Src/main.c ****   GPIO_InitStruct.Mode = GPIO_MODE_INPUT;
 283              		.loc 1 689 3 is_stmt 1 view .LVU103
 284              		.loc 1 689 24 is_stmt 0 view .LVU104
 285 0154 0894     		str	r4, [sp, #32]
 690:Core/Src/main.c ****   GPIO_InitStruct.Pull = GPIO_PULLDOWN;
 286              		.loc 1 690 3 is_stmt 1 view .LVU105
 287              		.loc 1 690 24 is_stmt 0 view .LVU106
 288 0156 0995     		str	r5, [sp, #36]
 691:Core/Src/main.c ****   HAL_GPIO_Init(GPIOG, &GPIO_InitStruct);
 289              		.loc 1 691 3 is_stmt 1 view .LVU107
 290 0158 07A9     		add	r1, sp, #28
 291 015a 1248     		ldr	r0, .L3+12
 292 015c FFF7FEFF 		bl	HAL_GPIO_Init
 293              	.LVL8:
 692:Core/Src/main.c **** 
 693:Core/Src/main.c ****   /*Configure GPIO pin : PE8 */
 694:Core/Src/main.c ****   GPIO_InitStruct.Pin = GPIO_PIN_8;
 294              		.loc 1 694 3 view .LVU108
 295              		.loc 1 694 23 is_stmt 0 view .LVU109
 296 0160 4FF48073 		mov	r3, #256
 297 0164 0793     		str	r3, [sp, #28]
 695:Core/Src/main.c ****   GPIO_InitStruct.Mode = GPIO_MODE_INPUT;
 298              		.loc 1 695 3 is_stmt 1 view .LVU110
 299              		.loc 1 695 24 is_stmt 0 view .LVU111
 300 0166 0894     		str	r4, [sp, #32]
 696:Core/Src/main.c ****   GPIO_InitStruct.Pull = GPIO_NOPULL;
 301              		.loc 1 696 3 is_stmt 1 view .LVU112
 302              		.loc 1 696 24 is_stmt 0 view .LVU113
 303 0168 0994     		str	r4, [sp, #36]
 697:Core/Src/main.c ****   HAL_GPIO_Init(GPIOE, &GPIO_InitStruct);
 304              		.loc 1 697 3 is_stmt 1 view .LVU114
 305 016a 07A9     		add	r1, sp, #28
 306 016c 3846     		mov	r0, r7
 307 016e FFF7FEFF 		bl	HAL_GPIO_Init
 308              	.LVL9:
 698:Core/Src/main.c **** 
 699:Core/Src/main.c ****   /*Configure GPIO pins : PD11 PD12 PD13 PD14
 700:Core/Src/main.c ****                            PD15 PD0 PD1 PD3
 701:Core/Src/main.c ****                            PD4 PD5 PD6 PD7 */
 702:Core/Src/main.c ****   GPIO_InitStruct.Pin = GPIO_PIN_11|GPIO_PIN_12|GPIO_PIN_13|GPIO_PIN_14
 309              		.loc 1 702 3 view .LVU115
 310              		.loc 1 702 23 is_stmt 0 view .LVU116
 311 0172 4FF6FB03 		movw	r3, #63739
 312 0176 0793     		str	r3, [sp, #28]
 703:Core/Src/main.c ****                           |GPIO_PIN_15|GPIO_PIN_0|GPIO_PIN_1|GPIO_PIN_3
 704:Core/Src/main.c ****                           |GPIO_PIN_4|GPIO_PIN_5|GPIO_PIN_6|GPIO_PIN_7;
 705:Core/Src/main.c ****   GPIO_InitStruct.Mode = GPIO_MODE_INPUT;
 313              		.loc 1 705 3 is_stmt 1 view .LVU117
 314              		.loc 1 705 24 is_stmt 0 view .LVU118
 315 0178 0894     		str	r4, [sp, #32]
 706:Core/Src/main.c ****   GPIO_InitStruct.Pull = GPIO_PULLDOWN;
 316              		.loc 1 706 3 is_stmt 1 view .LVU119
 317              		.loc 1 706 24 is_stmt 0 view .LVU120
 318 017a 0995     		str	r5, [sp, #36]
 707:Core/Src/main.c ****   HAL_GPIO_Init(GPIOD, &GPIO_InitStruct);
 319              		.loc 1 707 3 is_stmt 1 view .LVU121
 320 017c 07A9     		add	r1, sp, #28
ARM GAS  /tmp/ccVvSPo8.s 			page 19


 321 017e 0A48     		ldr	r0, .L3+16
 322 0180 FFF7FEFF 		bl	HAL_GPIO_Init
 323              	.LVL10:
 708:Core/Src/main.c **** 
 709:Core/Src/main.c ****   /*Configure GPIO pin : PB3 */
 710:Core/Src/main.c ****   GPIO_InitStruct.Pin = GPIO_PIN_3;
 324              		.loc 1 710 3 view .LVU122
 325              		.loc 1 710 23 is_stmt 0 view .LVU123
 326 0184 0823     		movs	r3, #8
 327 0186 0793     		str	r3, [sp, #28]
 711:Core/Src/main.c ****   GPIO_InitStruct.Mode = GPIO_MODE_INPUT;
 328              		.loc 1 711 3 is_stmt 1 view .LVU124
 329              		.loc 1 711 24 is_stmt 0 view .LVU125
 330 0188 0894     		str	r4, [sp, #32]
 712:Core/Src/main.c ****   GPIO_InitStruct.Pull = GPIO_PULLDOWN;
 331              		.loc 1 712 3 is_stmt 1 view .LVU126
 332              		.loc 1 712 24 is_stmt 0 view .LVU127
 333 018a 0995     		str	r5, [sp, #36]
 713:Core/Src/main.c ****   HAL_GPIO_Init(GPIOB, &GPIO_InitStruct);
 334              		.loc 1 713 3 is_stmt 1 view .LVU128
 335 018c 07A9     		add	r1, sp, #28
 336 018e 3046     		mov	r0, r6
 337 0190 FFF7FEFF 		bl	HAL_GPIO_Init
 338              	.LVL11:
 714:Core/Src/main.c **** 
 715:Core/Src/main.c ****   /* USER CODE BEGIN MX_GPIO_Init_2 */
 716:Core/Src/main.c **** 
 717:Core/Src/main.c ****   /* USER CODE END MX_GPIO_Init_2 */
 718:Core/Src/main.c **** }
 339              		.loc 1 718 1 is_stmt 0 view .LVU129
 340 0194 0DB0     		add	sp, sp, #52
 341              	.LCFI2:
 342              		.cfi_def_cfa_offset 20
 343              		@ sp needed
 344 0196 F0BD     		pop	{r4, r5, r6, r7, pc}
 345              	.L4:
 346              		.align	2
 347              	.L3:
 348 0198 00440258 		.word	1476543488
 349 019c 00100258 		.word	1476530176
 350 01a0 00140258 		.word	1476531200
 351 01a4 00180258 		.word	1476532224
 352 01a8 000C0258 		.word	1476529152
 353              		.cfi_endproc
 354              	.LFE161:
 356              		.section	.text.MPU_Config,"ax",%progbits
 357              		.align	1
 358              		.syntax unified
 359              		.thumb
 360              		.thumb_func
 361              		.fpu fpv5-d16
 363              	MPU_Config:
 364              	.LFB164:
 719:Core/Src/main.c **** 
 720:Core/Src/main.c **** /* USER CODE BEGIN 4 */
 721:Core/Src/main.c **** void HAL_UARTEx_RxEventCallback(UART_HandleTypeDef *huart, uint16_t Size)
 722:Core/Src/main.c **** {
ARM GAS  /tmp/ccVvSPo8.s 			page 20


 723:Core/Src/main.c ****     if (huart->Instance == USART3)
 724:Core/Src/main.c ****     {
 725:Core/Src/main.c ****         //HAL_UART_RxEventTypeTypeDef event_type = HAL_UARTEx_GetRxEventType(huart);
 726:Core/Src/main.c ****         //if (event_type == HAL_UART_RXEVENT_IDLE) {
 727:Core/Src/main.c ****           //SCB_InvalidateDCache_by_Addr((uint32_t*)rx3_buf, RX3_BUF_SIZE);
 728:Core/Src/main.c ****           rx3_len = Size;
 729:Core/Src/main.c ****           rx3_done = true;
 730:Core/Src/main.c ****           HAL_UARTEx_ReceiveToIdle_DMA(&huart3, rx3_buf, RX3_BUF_SIZE);
 731:Core/Src/main.c ****         //}
 732:Core/Src/main.c ****     }
 733:Core/Src/main.c **** }
 734:Core/Src/main.c **** 
 735:Core/Src/main.c **** void HAL_UART_ErrorCallback(UART_HandleTypeDef *huart)
 736:Core/Src/main.c **** {
 737:Core/Src/main.c ****     if (huart->Instance == huart3.Instance) 
 738:Core/Src/main.c ****     {
 739:Core/Src/main.c ****         uint32_t err = huart->ErrorCode;
 740:Core/Src/main.c ****           if (err & (HAL_UART_ERROR_ORE | HAL_UART_ERROR_NE | HAL_UART_ERROR_FE | HAL_UART_ERROR_PE
 741:Core/Src/main.c ****               HAL_UART_AbortReceive(huart);
 742:Core/Src/main.c ****               __HAL_UART_SEND_REQ(huart, UART_RXDATA_FLUSH_REQUEST);
 743:Core/Src/main.c ****               __HAL_UART_CLEAR_FLAG(huart, UART_CLEAR_OREF | UART_CLEAR_NEF | UART_CLEAR_FEF | UART
 744:Core/Src/main.c ****               memset(rx3_buf, 0, RX3_BUF_SIZE);
 745:Core/Src/main.c ****               HAL_UARTEx_ReceiveToIdle_DMA(huart, rx3_buf, RX3_BUF_SIZE);
 746:Core/Src/main.c ****           }
 747:Core/Src/main.c ****     }
 748:Core/Src/main.c **** }
 749:Core/Src/main.c **** /* USER CODE END 4 */
 750:Core/Src/main.c **** 
 751:Core/Src/main.c ****  /* MPU Configuration */
 752:Core/Src/main.c **** 
 753:Core/Src/main.c **** void MPU_Config(void)
 754:Core/Src/main.c **** {
 365              		.loc 1 754 1 is_stmt 1 view -0
 366              		.cfi_startproc
 367              		@ args = 0, pretend = 0, frame = 16
 368              		@ frame_needed = 0, uses_anonymous_args = 0
 369 0000 10B5     		push	{r4, lr}
 370              	.LCFI3:
 371              		.cfi_def_cfa_offset 8
 372              		.cfi_offset 4, -8
 373              		.cfi_offset 14, -4
 374 0002 84B0     		sub	sp, sp, #16
 375              	.LCFI4:
 376              		.cfi_def_cfa_offset 24
 755:Core/Src/main.c ****   MPU_Region_InitTypeDef MPU_InitStruct = {0};
 377              		.loc 1 755 3 view .LVU131
 378              		.loc 1 755 26 is_stmt 0 view .LVU132
 379 0004 0024     		movs	r4, #0
 380 0006 0094     		str	r4, [sp]
 381 0008 0194     		str	r4, [sp, #4]
 382 000a 0294     		str	r4, [sp, #8]
 383 000c 0394     		str	r4, [sp, #12]
 756:Core/Src/main.c **** 
 757:Core/Src/main.c ****   /* Disables the MPU */
 758:Core/Src/main.c ****   HAL_MPU_Disable();
 384              		.loc 1 758 3 is_stmt 1 view .LVU133
 385 000e FFF7FEFF 		bl	HAL_MPU_Disable
ARM GAS  /tmp/ccVvSPo8.s 			page 21


 386              	.LVL12:
 759:Core/Src/main.c **** 
 760:Core/Src/main.c ****   /** Initializes and configures the Region and the memory to be protected
 761:Core/Src/main.c ****   */
 762:Core/Src/main.c ****   MPU_InitStruct.Enable = MPU_REGION_ENABLE;
 387              		.loc 1 762 3 view .LVU134
 388              		.loc 1 762 25 is_stmt 0 view .LVU135
 389 0012 0123     		movs	r3, #1
 390 0014 8DF80030 		strb	r3, [sp]
 763:Core/Src/main.c ****   MPU_InitStruct.Number = MPU_REGION_NUMBER0;
 391              		.loc 1 763 3 is_stmt 1 view .LVU136
 392              		.loc 1 763 25 is_stmt 0 view .LVU137
 393 0018 8DF80140 		strb	r4, [sp, #1]
 764:Core/Src/main.c ****   MPU_InitStruct.BaseAddress = 0x30000000;
 394              		.loc 1 764 3 is_stmt 1 view .LVU138
 395              		.loc 1 764 30 is_stmt 0 view .LVU139
 396 001c 4FF04052 		mov	r2, #805306368
 397 0020 0192     		str	r2, [sp, #4]
 765:Core/Src/main.c ****   MPU_InitStruct.Size = MPU_REGION_SIZE_512KB;
 398              		.loc 1 765 3 is_stmt 1 view .LVU140
 399              		.loc 1 765 23 is_stmt 0 view .LVU141
 400 0022 1222     		movs	r2, #18
 401 0024 8DF80820 		strb	r2, [sp, #8]
 766:Core/Src/main.c ****   MPU_InitStruct.SubRegionDisable = 0x0;
 402              		.loc 1 766 3 is_stmt 1 view .LVU142
 403              		.loc 1 766 35 is_stmt 0 view .LVU143
 404 0028 8DF80940 		strb	r4, [sp, #9]
 767:Core/Src/main.c ****   MPU_InitStruct.TypeExtField = MPU_TEX_LEVEL1;
 405              		.loc 1 767 3 is_stmt 1 view .LVU144
 406              		.loc 1 767 31 is_stmt 0 view .LVU145
 407 002c 8DF80A30 		strb	r3, [sp, #10]
 768:Core/Src/main.c ****   MPU_InitStruct.AccessPermission = MPU_REGION_FULL_ACCESS;
 408              		.loc 1 768 3 is_stmt 1 view .LVU146
 409              		.loc 1 768 35 is_stmt 0 view .LVU147
 410 0030 0322     		movs	r2, #3
 411 0032 8DF80B20 		strb	r2, [sp, #11]
 769:Core/Src/main.c ****   MPU_InitStruct.DisableExec = MPU_INSTRUCTION_ACCESS_DISABLE;
 412              		.loc 1 769 3 is_stmt 1 view .LVU148
 413              		.loc 1 769 30 is_stmt 0 view .LVU149
 414 0036 8DF80C30 		strb	r3, [sp, #12]
 770:Core/Src/main.c ****   MPU_InitStruct.IsShareable = MPU_ACCESS_SHAREABLE;
 415              		.loc 1 770 3 is_stmt 1 view .LVU150
 416              		.loc 1 770 30 is_stmt 0 view .LVU151
 417 003a 8DF80D30 		strb	r3, [sp, #13]
 771:Core/Src/main.c ****   MPU_InitStruct.IsCacheable = MPU_ACCESS_NOT_CACHEABLE;
 418              		.loc 1 771 3 is_stmt 1 view .LVU152
 419              		.loc 1 771 30 is_stmt 0 view .LVU153
 420 003e 8DF80E40 		strb	r4, [sp, #14]
 772:Core/Src/main.c ****   MPU_InitStruct.IsBufferable = MPU_ACCESS_NOT_BUFFERABLE;
 421              		.loc 1 772 3 is_stmt 1 view .LVU154
 422              		.loc 1 772 31 is_stmt 0 view .LVU155
 423 0042 8DF80F40 		strb	r4, [sp, #15]
 773:Core/Src/main.c **** 
 774:Core/Src/main.c ****   HAL_MPU_ConfigRegion(&MPU_InitStruct);
 424              		.loc 1 774 3 is_stmt 1 view .LVU156
 425 0046 6846     		mov	r0, sp
 426 0048 FFF7FEFF 		bl	HAL_MPU_ConfigRegion
ARM GAS  /tmp/ccVvSPo8.s 			page 22


 427              	.LVL13:
 775:Core/Src/main.c ****   /* Enables the MPU */
 776:Core/Src/main.c ****   HAL_MPU_Enable(MPU_PRIVILEGED_DEFAULT);
 428              		.loc 1 776 3 view .LVU157
 429 004c 0420     		movs	r0, #4
 430 004e FFF7FEFF 		bl	HAL_MPU_Enable
 431              	.LVL14:
 777:Core/Src/main.c **** 
 778:Core/Src/main.c **** }
 432              		.loc 1 778 1 is_stmt 0 view .LVU158
 433 0052 04B0     		add	sp, sp, #16
 434              	.LCFI5:
 435              		.cfi_def_cfa_offset 8
 436              		@ sp needed
 437 0054 10BD     		pop	{r4, pc}
 438              		.cfi_endproc
 439              	.LFE164:
 441              		.section	.text.MX_DMA_Init,"ax",%progbits
 442              		.align	1
 443              		.syntax unified
 444              		.thumb
 445              		.thumb_func
 446              		.fpu fpv5-d16
 448              	MX_DMA_Init:
 449              	.LFB160:
 585:Core/Src/main.c **** 
 450              		.loc 1 585 1 is_stmt 1 view -0
 451              		.cfi_startproc
 452              		@ args = 0, pretend = 0, frame = 8
 453              		@ frame_needed = 0, uses_anonymous_args = 0
 454 0000 00B5     		push	{lr}
 455              	.LCFI6:
 456              		.cfi_def_cfa_offset 4
 457              		.cfi_offset 14, -4
 458 0002 83B0     		sub	sp, sp, #12
 459              	.LCFI7:
 460              		.cfi_def_cfa_offset 16
 588:Core/Src/main.c **** 
 461              		.loc 1 588 3 view .LVU160
 462              	.LBB11:
 588:Core/Src/main.c **** 
 463              		.loc 1 588 3 view .LVU161
 588:Core/Src/main.c **** 
 464              		.loc 1 588 3 view .LVU162
 465 0004 0F4B     		ldr	r3, .L9
 466 0006 D3F8D820 		ldr	r2, [r3, #216]
 467 000a 42F00102 		orr	r2, r2, #1
 468 000e C3F8D820 		str	r2, [r3, #216]
 588:Core/Src/main.c **** 
 469              		.loc 1 588 3 view .LVU163
 470 0012 D3F8D830 		ldr	r3, [r3, #216]
 471 0016 03F00103 		and	r3, r3, #1
 472 001a 0193     		str	r3, [sp, #4]
 588:Core/Src/main.c **** 
 473              		.loc 1 588 3 view .LVU164
 474 001c 019B     		ldr	r3, [sp, #4]
 475              	.LBE11:
ARM GAS  /tmp/ccVvSPo8.s 			page 23


 588:Core/Src/main.c **** 
 476              		.loc 1 588 3 view .LVU165
 592:Core/Src/main.c ****   HAL_NVIC_EnableIRQ(DMA1_Stream0_IRQn);
 477              		.loc 1 592 3 view .LVU166
 478 001e 0022     		movs	r2, #0
 479 0020 1146     		mov	r1, r2
 480 0022 0B20     		movs	r0, #11
 481 0024 FFF7FEFF 		bl	HAL_NVIC_SetPriority
 482              	.LVL15:
 593:Core/Src/main.c ****   /* DMA1_Stream1_IRQn interrupt configuration */
 483              		.loc 1 593 3 view .LVU167
 484 0028 0B20     		movs	r0, #11
 485 002a FFF7FEFF 		bl	HAL_NVIC_EnableIRQ
 486              	.LVL16:
 595:Core/Src/main.c ****   HAL_NVIC_EnableIRQ(DMA1_Stream1_IRQn);
 487              		.loc 1 595 3 view .LVU168
 488 002e 0022     		movs	r2, #0
 489 0030 1146     		mov	r1, r2
 490 0032 0C20     		movs	r0, #12
 491 0034 FFF7FEFF 		bl	HAL_NVIC_SetPriority
 492              	.LVL17:
 596:Core/Src/main.c **** 
 493              		.loc 1 596 3 view .LVU169
 494 0038 0C20     		movs	r0, #12
 495 003a FFF7FEFF 		bl	HAL_NVIC_EnableIRQ
 496              	.LVL18:
 598:Core/Src/main.c **** 
 497              		.loc 1 598 1 is_stmt 0 view .LVU170
 498 003e 03B0     		add	sp, sp, #12
 499              	.LCFI8:
 500              		.cfi_def_cfa_offset 4
 501              		@ sp needed
 502 0040 5DF804FB 		ldr	pc, [sp], #4
 503              	.L10:
 504              		.align	2
 505              	.L9:
 506 0044 00440258 		.word	1476543488
 507              		.cfi_endproc
 508              	.LFE160:
 510              		.section	.text.do_Tx,"ax",%progbits
 511              		.align	1
 512              		.global	do_Tx
 513              		.syntax unified
 514              		.thumb
 515              		.thumb_func
 516              		.fpu fpv5-d16
 518              	do_Tx:
 519              	.LFB149:
 179:Core/Src/main.c ****   while(huart->gState != HAL_UART_STATE_READY) {}
 520              		.loc 1 179 67 is_stmt 1 view -0
 521              		.cfi_startproc
 522              		@ args = 0, pretend = 0, frame = 0
 523              		@ frame_needed = 0, uses_anonymous_args = 0
 524              	.LVL19:
 179:Core/Src/main.c ****   while(huart->gState != HAL_UART_STATE_READY) {}
 525              		.loc 1 179 67 is_stmt 0 view .LVU172
 526 0000 08B5     		push	{r3, lr}
ARM GAS  /tmp/ccVvSPo8.s 			page 24


 527              	.LCFI9:
 528              		.cfi_def_cfa_offset 8
 529              		.cfi_offset 3, -8
 530              		.cfi_offset 14, -4
 531              	.L12:
 180:Core/Src/main.c ****   HAL_UART_Transmit_DMA(huart, buf, len);
 532              		.loc 1 180 49 is_stmt 1 discriminator 1 view .LVU173
 180:Core/Src/main.c ****   HAL_UART_Transmit_DMA(huart, buf, len);
 533              		.loc 1 180 8 discriminator 1 view .LVU174
 180:Core/Src/main.c ****   HAL_UART_Transmit_DMA(huart, buf, len);
 534              		.loc 1 180 14 is_stmt 0 discriminator 1 view .LVU175
 535 0002 D0F88830 		ldr	r3, [r0, #136]
 180:Core/Src/main.c ****   HAL_UART_Transmit_DMA(huart, buf, len);
 536              		.loc 1 180 8 discriminator 1 view .LVU176
 537 0006 202B     		cmp	r3, #32
 538 0008 FBD1     		bne	.L12
 181:Core/Src/main.c **** }
 539              		.loc 1 181 3 is_stmt 1 view .LVU177
 540 000a FFF7FEFF 		bl	HAL_UART_Transmit_DMA
 541              	.LVL20:
 182:Core/Src/main.c **** 
 542              		.loc 1 182 1 is_stmt 0 view .LVU178
 543 000e 08BD     		pop	{r3, pc}
 544              		.cfi_endproc
 545              	.LFE149:
 547              		.section	.text.set_pin_output,"ax",%progbits
 548              		.align	1
 549              		.global	set_pin_output
 550              		.syntax unified
 551              		.thumb
 552              		.thumb_func
 553              		.fpu fpv5-d16
 555              	set_pin_output:
 556              	.LFB150:
 184:Core/Src/main.c ****   GPIO_InitTypeDef GPIO_InitStruct = {0};
 557              		.loc 1 184 30 is_stmt 1 view -0
 558              		.cfi_startproc
 559              		@ args = 0, pretend = 0, frame = 32
 560              		@ frame_needed = 0, uses_anonymous_args = 0
 561 0000 00B5     		push	{lr}
 562              	.LCFI10:
 563              		.cfi_def_cfa_offset 4
 564              		.cfi_offset 14, -4
 565 0002 89B0     		sub	sp, sp, #36
 566              	.LCFI11:
 567              		.cfi_def_cfa_offset 40
 568 0004 6B46     		mov	r3, sp
 569 0006 83E80300 		stm	r3, {r0, r1}
 185:Core/Src/main.c ****   GPIO_InitStruct.Pin = pin.Number;
 570              		.loc 1 185 3 view .LVU180
 185:Core/Src/main.c ****   GPIO_InitStruct.Pin = pin.Number;
 571              		.loc 1 185 20 is_stmt 0 view .LVU181
 572 000a 0023     		movs	r3, #0
 573 000c 0793     		str	r3, [sp, #28]
 186:Core/Src/main.c ****   GPIO_InitStruct.Mode = GPIO_MODE_OUTPUT_PP;  
 574              		.loc 1 186 3 is_stmt 1 view .LVU182
 186:Core/Src/main.c ****   GPIO_InitStruct.Mode = GPIO_MODE_OUTPUT_PP;  
ARM GAS  /tmp/ccVvSPo8.s 			page 25


 575              		.loc 1 186 28 is_stmt 0 view .LVU183
 576 000e BDF80420 		ldrh	r2, [sp, #4]
 186:Core/Src/main.c ****   GPIO_InitStruct.Mode = GPIO_MODE_OUTPUT_PP;  
 577              		.loc 1 186 23 view .LVU184
 578 0012 0392     		str	r2, [sp, #12]
 187:Core/Src/main.c ****   GPIO_InitStruct.Pull = GPIO_NOPULL;          
 579              		.loc 1 187 3 is_stmt 1 view .LVU185
 187:Core/Src/main.c ****   GPIO_InitStruct.Pull = GPIO_NOPULL;          
 580              		.loc 1 187 24 is_stmt 0 view .LVU186
 581 0014 0122     		movs	r2, #1
 582 0016 0492     		str	r2, [sp, #16]
 188:Core/Src/main.c ****   GPIO_InitStruct.Speed = GPIO_SPEED_FREQ_LOW; 
 583              		.loc 1 188 3 is_stmt 1 view .LVU187
 188:Core/Src/main.c ****   GPIO_InitStruct.Speed = GPIO_SPEED_FREQ_LOW; 
 584              		.loc 1 188 24 is_stmt 0 view .LVU188
 585 0018 0593     		str	r3, [sp, #20]
 189:Core/Src/main.c ****   HAL_GPIO_Init(pin.Letter, &GPIO_InitStruct);
 586              		.loc 1 189 3 is_stmt 1 view .LVU189
 189:Core/Src/main.c ****   HAL_GPIO_Init(pin.Letter, &GPIO_InitStruct);
 587              		.loc 1 189 25 is_stmt 0 view .LVU190
 588 001a 0693     		str	r3, [sp, #24]
 190:Core/Src/main.c **** }
 589              		.loc 1 190 3 is_stmt 1 view .LVU191
 590 001c 03A9     		add	r1, sp, #12
 591 001e FFF7FEFF 		bl	HAL_GPIO_Init
 592              	.LVL21:
 191:Core/Src/main.c **** 
 593              		.loc 1 191 1 is_stmt 0 view .LVU192
 594 0022 09B0     		add	sp, sp, #36
 595              	.LCFI12:
 596              		.cfi_def_cfa_offset 4
 597              		@ sp needed
 598 0024 5DF804FB 		ldr	pc, [sp], #4
 599              		.cfi_endproc
 600              	.LFE150:
 602              		.section	.text.set_pin_input,"ax",%progbits
 603              		.align	1
 604              		.global	set_pin_input
 605              		.syntax unified
 606              		.thumb
 607              		.thumb_func
 608              		.fpu fpv5-d16
 610              	set_pin_input:
 611              	.LFB151:
 193:Core/Src/main.c ****   GPIO_InitTypeDef GPIO_InitStruct = {0};
 612              		.loc 1 193 29 is_stmt 1 view -0
 613              		.cfi_startproc
 614              		@ args = 0, pretend = 0, frame = 32
 615              		@ frame_needed = 0, uses_anonymous_args = 0
 616 0000 00B5     		push	{lr}
 617              	.LCFI13:
 618              		.cfi_def_cfa_offset 4
 619              		.cfi_offset 14, -4
 620 0002 89B0     		sub	sp, sp, #36
 621              	.LCFI14:
 622              		.cfi_def_cfa_offset 40
 623 0004 6B46     		mov	r3, sp
ARM GAS  /tmp/ccVvSPo8.s 			page 26


 624 0006 83E80300 		stm	r3, {r0, r1}
 194:Core/Src/main.c ****   GPIO_InitStruct.Pin = pin.Number;
 625              		.loc 1 194 3 view .LVU194
 194:Core/Src/main.c ****   GPIO_InitStruct.Pin = pin.Number;
 626              		.loc 1 194 20 is_stmt 0 view .LVU195
 627 000a 0023     		movs	r3, #0
 628 000c 0793     		str	r3, [sp, #28]
 195:Core/Src/main.c ****   GPIO_InitStruct.Mode = GPIO_MODE_INPUT;  
 629              		.loc 1 195 3 is_stmt 1 view .LVU196
 195:Core/Src/main.c ****   GPIO_InitStruct.Mode = GPIO_MODE_INPUT;  
 630              		.loc 1 195 28 is_stmt 0 view .LVU197
 631 000e BDF80420 		ldrh	r2, [sp, #4]
 195:Core/Src/main.c ****   GPIO_InitStruct.Mode = GPIO_MODE_INPUT;  
 632              		.loc 1 195 23 view .LVU198
 633 0012 0392     		str	r2, [sp, #12]
 196:Core/Src/main.c ****   GPIO_InitStruct.Pull = GPIO_PULLDOWN;      
 634              		.loc 1 196 3 is_stmt 1 view .LVU199
 196:Core/Src/main.c ****   GPIO_InitStruct.Pull = GPIO_PULLDOWN;      
 635              		.loc 1 196 24 is_stmt 0 view .LVU200
 636 0014 0493     		str	r3, [sp, #16]
 197:Core/Src/main.c ****   GPIO_InitStruct.Speed = GPIO_SPEED_FREQ_LOW;
 637              		.loc 1 197 3 is_stmt 1 view .LVU201
 197:Core/Src/main.c ****   GPIO_InitStruct.Speed = GPIO_SPEED_FREQ_LOW;
 638              		.loc 1 197 24 is_stmt 0 view .LVU202
 639 0016 0222     		movs	r2, #2
 640 0018 0592     		str	r2, [sp, #20]
 198:Core/Src/main.c ****   HAL_GPIO_Init(pin.Letter, &GPIO_InitStruct);
 641              		.loc 1 198 3 is_stmt 1 view .LVU203
 198:Core/Src/main.c ****   HAL_GPIO_Init(pin.Letter, &GPIO_InitStruct);
 642              		.loc 1 198 25 is_stmt 0 view .LVU204
 643 001a 0693     		str	r3, [sp, #24]
 199:Core/Src/main.c **** }
 644              		.loc 1 199 3 is_stmt 1 view .LVU205
 645 001c 03A9     		add	r1, sp, #12
 646 001e FFF7FEFF 		bl	HAL_GPIO_Init
 647              	.LVL22:
 200:Core/Src/main.c **** 
 648              		.loc 1 200 1 is_stmt 0 view .LVU206
 649 0022 09B0     		add	sp, sp, #36
 650              	.LCFI15:
 651              		.cfi_def_cfa_offset 4
 652              		@ sp needed
 653 0024 5DF804FB 		ldr	pc, [sp], #4
 654              		.cfi_endproc
 655              	.LFE151:
 657              		.section	.text.append_pin_config,"ax",%progbits
 658              		.align	1
 659              		.global	append_pin_config
 660              		.syntax unified
 661              		.thumb
 662              		.thumb_func
 663              		.fpu fpv5-d16
 665              	append_pin_config:
 666              	.LVL23:
 667              	.LFB152:
 202:Core/Src/main.c ****     if(confptr[0] >= len) {
 668              		.loc 1 202 54 is_stmt 1 view -0
ARM GAS  /tmp/ccVvSPo8.s 			page 27


 669              		.cfi_startproc
 670              		@ args = 0, pretend = 0, frame = 0
 671              		@ frame_needed = 0, uses_anonymous_args = 0
 672              		@ link register save eliminated.
 203:Core/Src/main.c ****     #ifdef Debug
 673              		.loc 1 203 5 view .LVU208
 203:Core/Src/main.c ****     #ifdef Debug
 674              		.loc 1 203 15 is_stmt 0 view .LVU209
 675 0000 0378     		ldrb	r3, [r0]	@ zero_extendqisi2
 203:Core/Src/main.c ****     #ifdef Debug
 676              		.loc 1 203 7 view .LVU210
 677 0002 8B42     		cmp	r3, r1
 678 0004 01D2     		bcs	.L20
 210:Core/Src/main.c **** 
 679              		.loc 1 210 10 view .LVU211
 680 0006 0020     		movs	r0, #0
 681              	.LVL24:
 210:Core/Src/main.c **** 
 682              		.loc 1 210 10 view .LVU212
 683 0008 7047     		bx	lr
 684              	.LVL25:
 685              	.L20:
 207:Core/Src/main.c ****   }
 686              		.loc 1 207 12 view .LVU213
 687 000a 0120     		movs	r0, #1
 688              	.LVL26:
 212:Core/Src/main.c **** 
 689              		.loc 1 212 1 view .LVU214
 690 000c 7047     		bx	lr
 691              		.cfi_endproc
 692              	.LFE152:
 694              		.section	.rodata.apply_pin_config.str1.4,"aMS",%progbits,1
 695              		.align	2
 696              	.LC0:
 697 0000 3A00     		.ascii	":\000"
 698              		.section	.text.apply_pin_config,"ax",%progbits
 699              		.align	1
 700              		.global	apply_pin_config
 701              		.syntax unified
 702              		.thumb
 703              		.thumb_func
 704              		.fpu fpv5-d16
 706              	apply_pin_config:
 707              	.LVL27:
 708              	.LFB153:
 214:Core/Src/main.c ****   if(confptr[0] >= len) {
 709              		.loc 1 214 66 is_stmt 1 view -0
 710              		.cfi_startproc
 711              		@ args = 0, pretend = 0, frame = 0
 712              		@ frame_needed = 0, uses_anonymous_args = 0
 214:Core/Src/main.c ****   if(confptr[0] >= len) {
 713              		.loc 1 214 66 is_stmt 0 view .LVU216
 714 0000 F8B5     		push	{r3, r4, r5, r6, r7, lr}
 715              	.LCFI16:
 716              		.cfi_def_cfa_offset 24
 717              		.cfi_offset 3, -24
 718              		.cfi_offset 4, -20
ARM GAS  /tmp/ccVvSPo8.s 			page 28


 719              		.cfi_offset 5, -16
 720              		.cfi_offset 6, -12
 721              		.cfi_offset 7, -8
 722              		.cfi_offset 14, -4
 215:Core/Src/main.c ****     #ifdef Debug
 723              		.loc 1 215 3 is_stmt 1 view .LVU217
 215:Core/Src/main.c ****     #ifdef Debug
 724              		.loc 1 215 13 is_stmt 0 view .LVU218
 725 0002 0578     		ldrb	r5, [r0]	@ zero_extendqisi2
 215:Core/Src/main.c ****     #ifdef Debug
 726              		.loc 1 215 5 view .LVU219
 727 0004 8D42     		cmp	r5, r1
 728 0006 40D2     		bcs	.L28
 729 0008 0646     		mov	r6, r0
 730 000a 0F46     		mov	r7, r1
 225:Core/Src/main.c **** 
 731              		.loc 1 225 3 is_stmt 1 view .LVU220
 732              	.LVL28:
 227:Core/Src/main.c ****     Output_Pins_len = 0;
 733              		.loc 1 227 3 view .LVU221
 227:Core/Src/main.c ****     Output_Pins_len = 0;
 734              		.loc 1 227 6 is_stmt 0 view .LVU222
 735 000c 22B9     		cbnz	r2, .L23
 228:Core/Src/main.c ****     Input_Pins_len = 0;
 736              		.loc 1 228 5 is_stmt 1 view .LVU223
 228:Core/Src/main.c ****     Input_Pins_len = 0;
 737              		.loc 1 228 21 is_stmt 0 view .LVU224
 738 000e 0023     		movs	r3, #0
 739 0010 214A     		ldr	r2, .L34
 740              	.LVL29:
 228:Core/Src/main.c ****     Input_Pins_len = 0;
 741              		.loc 1 228 21 view .LVU225
 742 0012 1370     		strb	r3, [r2]
 229:Core/Src/main.c ****   }
 743              		.loc 1 229 5 is_stmt 1 view .LVU226
 229:Core/Src/main.c ****   }
 744              		.loc 1 229 20 is_stmt 0 view .LVU227
 745 0014 214A     		ldr	r2, .L34+4
 746 0016 1370     		strb	r3, [r2]
 747              	.L23:
 214:Core/Src/main.c ****   if(confptr[0] >= len) {
 748              		.loc 1 214 66 discriminator 1 view .LVU228
 749 0018 0123     		movs	r3, #1
 750              	.LVL30:
 751              	.L24:
 752              	.LBB12:
 232:Core/Src/main.c ****     if (confptr[i] >= GPIO_PINS_Len) {
 753              		.loc 1 232 22 is_stmt 1 discriminator 1 view .LVU229
 232:Core/Src/main.c ****     if (confptr[i] >= GPIO_PINS_Len) {
 754              		.loc 1 232 3 is_stmt 0 discriminator 1 view .LVU230
 755 001a 9D42     		cmp	r5, r3
 756 001c 15D3     		bcc	.L32
 233:Core/Src/main.c ****       #ifdef Debug
 757              		.loc 1 233 5 is_stmt 1 view .LVU231
 233:Core/Src/main.c ****       #ifdef Debug
 758              		.loc 1 233 16 is_stmt 0 view .LVU232
 759 001e F05C     		ldrb	r0, [r6, r3]	@ zero_extendqisi2
ARM GAS  /tmp/ccVvSPo8.s 			page 29


 233:Core/Src/main.c ****       #ifdef Debug
 760              		.loc 1 233 8 view .LVU233
 761 0020 4728     		cmp	r0, #71
 762 0022 34D8     		bhi	.L29
 239:Core/Src/main.c ****     #ifdef Debug
 763              		.loc 1 239 5 is_stmt 1 discriminator 2 view .LVU234
 239:Core/Src/main.c ****     #ifdef Debug
 764              		.loc 1 239 16 is_stmt 0 discriminator 2 view .LVU235
 765 0024 DFF870C0 		ldr	ip, .L34
 766 0028 9CF80020 		ldrb	r2, [ip]	@ zero_extendqisi2
 239:Core/Src/main.c ****     #ifdef Debug
 767              		.loc 1 239 34 discriminator 2 view .LVU236
 768 002c 1C4C     		ldr	r4, .L34+8
 769 002e 04EBC204 		add	r4, r4, r2, lsl #3
 770 0032 1C49     		ldr	r1, .L34+12
 771 0034 01EBC001 		add	r1, r1, r0, lsl #3
 772 0038 03C9     		ldm	r1, {r0, r1}
 773 003a 84E80300 		stm	r4, {r0, r1}
 244:Core/Src/main.c ****   }
 774              		.loc 1 244 5 is_stmt 1 discriminator 2 view .LVU237
 244:Core/Src/main.c ****   }
 775              		.loc 1 244 20 is_stmt 0 discriminator 2 view .LVU238
 776 003e 0132     		adds	r2, r2, #1
 777 0040 8CF80020 		strb	r2, [ip]
 232:Core/Src/main.c ****     if (confptr[i] >= GPIO_PINS_Len) {
 778              		.loc 1 232 41 is_stmt 1 discriminator 2 view .LVU239
 232:Core/Src/main.c ****     if (confptr[i] >= GPIO_PINS_Len) {
 779              		.loc 1 232 42 is_stmt 0 discriminator 2 view .LVU240
 780 0044 0133     		adds	r3, r3, #1
 781              	.LVL31:
 232:Core/Src/main.c ****     if (confptr[i] >= GPIO_PINS_Len) {
 782              		.loc 1 232 42 discriminator 2 view .LVU241
 783 0046 DBB2     		uxtb	r3, r3
 784              	.LVL32:
 232:Core/Src/main.c ****     if (confptr[i] >= GPIO_PINS_Len) {
 785              		.loc 1 232 42 discriminator 2 view .LVU242
 786 0048 E7E7     		b	.L24
 787              	.L32:
 232:Core/Src/main.c ****     if (confptr[i] >= GPIO_PINS_Len) {
 788              		.loc 1 232 42 discriminator 2 view .LVU243
 789              	.LBE12:
 247:Core/Src/main.c ****   
 790              		.loc 1 247 3 is_stmt 1 view .LVU244
 791 004a 174C     		ldr	r4, .L34+16
 792 004c 2046     		mov	r0, r4
 793 004e FFF7FEFF 		bl	strlen
 794              	.LVL33:
 247:Core/Src/main.c ****   
 795              		.loc 1 247 3 is_stmt 0 view .LVU245
 796 0052 164B     		ldr	r3, .L34+20
 797 0054 1B88     		ldrh	r3, [r3]	@ unaligned
 798 0056 2352     		strh	r3, [r4, r0]	@ unaligned
 249:Core/Src/main.c ****     if (confptr[i] >= GPIO_PINS_Len) {
 799              		.loc 1 249 3 is_stmt 1 view .LVU246
 800              	.LBB13:
 249:Core/Src/main.c ****     if (confptr[i] >= GPIO_PINS_Len) {
 801              		.loc 1 249 7 view .LVU247
ARM GAS  /tmp/ccVvSPo8.s 			page 30


 249:Core/Src/main.c ****     if (confptr[i] >= GPIO_PINS_Len) {
 802              		.loc 1 249 15 is_stmt 0 view .LVU248
 803 0058 0135     		adds	r5, r5, #1
 804              	.LVL34:
 249:Core/Src/main.c ****     if (confptr[i] >= GPIO_PINS_Len) {
 805              		.loc 1 249 15 view .LVU249
 806 005a EDB2     		uxtb	r5, r5
 807              	.LVL35:
 808              	.L26:
 249:Core/Src/main.c ****     if (confptr[i] >= GPIO_PINS_Len) {
 809              		.loc 1 249 35 is_stmt 1 discriminator 1 view .LVU250
 249:Core/Src/main.c ****     if (confptr[i] >= GPIO_PINS_Len) {
 810              		.loc 1 249 3 is_stmt 0 discriminator 1 view .LVU251
 811 005c BD42     		cmp	r5, r7
 812 005e 12D2     		bcs	.L33
 250:Core/Src/main.c ****       #ifdef Debug
 813              		.loc 1 250 5 is_stmt 1 view .LVU252
 250:Core/Src/main.c ****       #ifdef Debug
 814              		.loc 1 250 16 is_stmt 0 view .LVU253
 815 0060 705D     		ldrb	r0, [r6, r5]	@ zero_extendqisi2
 250:Core/Src/main.c ****       #ifdef Debug
 816              		.loc 1 250 8 view .LVU254
 817 0062 4728     		cmp	r0, #71
 818 0064 15D8     		bhi	.L30
 256:Core/Src/main.c ****     #ifdef  Debug
 819              		.loc 1 256 5 is_stmt 1 discriminator 2 view .LVU255
 256:Core/Src/main.c ****     #ifdef  Debug
 820              		.loc 1 256 15 is_stmt 0 discriminator 2 view .LVU256
 821 0066 0D4C     		ldr	r4, .L34+4
 822 0068 2378     		ldrb	r3, [r4]	@ zero_extendqisi2
 256:Core/Src/main.c ****     #ifdef  Debug
 823              		.loc 1 256 32 discriminator 2 view .LVU257
 824 006a 114A     		ldr	r2, .L34+24
 825 006c 02EBC302 		add	r2, r2, r3, lsl #3
 826 0070 0C49     		ldr	r1, .L34+12
 827 0072 01EBC001 		add	r1, r1, r0, lsl #3
 828 0076 03C9     		ldm	r1, {r0, r1}
 829 0078 82E80300 		stm	r2, {r0, r1}
 261:Core/Src/main.c ****   }
 830              		.loc 1 261 5 is_stmt 1 discriminator 2 view .LVU258
 261:Core/Src/main.c ****   }
 831              		.loc 1 261 19 is_stmt 0 discriminator 2 view .LVU259
 832 007c 0133     		adds	r3, r3, #1
 833 007e 2370     		strb	r3, [r4]
 249:Core/Src/main.c ****     if (confptr[i] >= GPIO_PINS_Len) {
 834              		.loc 1 249 44 is_stmt 1 discriminator 2 view .LVU260
 249:Core/Src/main.c ****     if (confptr[i] >= GPIO_PINS_Len) {
 835              		.loc 1 249 45 is_stmt 0 discriminator 2 view .LVU261
 836 0080 0135     		adds	r5, r5, #1
 837              	.LVL36:
 249:Core/Src/main.c ****     if (confptr[i] >= GPIO_PINS_Len) {
 838              		.loc 1 249 45 discriminator 2 view .LVU262
 839 0082 EDB2     		uxtb	r5, r5
 840              	.LVL37:
 249:Core/Src/main.c ****     if (confptr[i] >= GPIO_PINS_Len) {
 841              		.loc 1 249 45 discriminator 2 view .LVU263
 842 0084 EAE7     		b	.L26
ARM GAS  /tmp/ccVvSPo8.s 			page 31


 843              	.L33:
 249:Core/Src/main.c ****     if (confptr[i] >= GPIO_PINS_Len) {
 844              		.loc 1 249 45 discriminator 2 view .LVU264
 845              	.LBE13:
 269:Core/Src/main.c **** }
 846              		.loc 1 269 10 view .LVU265
 847 0086 0020     		movs	r0, #0
 848              	.LBB14:
 849 0088 00E0     		b	.L21
 850              	.LVL38:
 851              	.L28:
 269:Core/Src/main.c **** }
 852              		.loc 1 269 10 view .LVU266
 853              	.LBE14:
 219:Core/Src/main.c ****   }
 854              		.loc 1 219 12 view .LVU267
 855 008a 0120     		movs	r0, #1
 856              	.LVL39:
 857              	.L21:
 270:Core/Src/main.c **** 
 858              		.loc 1 270 1 view .LVU268
 859 008c F8BD     		pop	{r3, r4, r5, r6, r7, pc}
 860              	.LVL40:
 861              	.L29:
 862              	.LBB15:
 237:Core/Src/main.c ****     }
 863              		.loc 1 237 14 view .LVU269
 864 008e 0120     		movs	r0, #1
 865 0090 FCE7     		b	.L21
 866              	.LVL41:
 867              	.L30:
 237:Core/Src/main.c ****     }
 868              		.loc 1 237 14 view .LVU270
 869              	.LBE15:
 870              	.LBB16:
 254:Core/Src/main.c ****     }
 871              		.loc 1 254 14 view .LVU271
 872 0092 0120     		movs	r0, #1
 873 0094 FAE7     		b	.L21
 874              	.L35:
 875 0096 00BF     		.align	2
 876              	.L34:
 877 0098 00000000 		.word	.LANCHOR0
 878 009c 00000000 		.word	.LANCHOR1
 879 00a0 00000000 		.word	Output_Pins
 880 00a4 00000000 		.word	.LANCHOR2
 881 00a8 00000000 		.word	.LANCHOR3
 882 00ac 00000000 		.word	.LC0
 883 00b0 00000000 		.word	Input_Pins
 884              	.LBE16:
 885              		.cfi_endproc
 886              	.LFE153:
 888              		.section	.text.trim_leading,"ax",%progbits
 889              		.align	1
 890              		.global	trim_leading
 891              		.syntax unified
 892              		.thumb
ARM GAS  /tmp/ccVvSPo8.s 			page 32


 893              		.thumb_func
 894              		.fpu fpv5-d16
 896              	trim_leading:
 897              	.LVL42:
 898              	.LFB154:
 272:Core/Src/main.c ****   uint8_t* str = org_str;
 899              		.loc 1 272 72 is_stmt 1 view -0
 900              		.cfi_startproc
 901              		@ args = 0, pretend = 0, frame = 0
 902              		@ frame_needed = 0, uses_anonymous_args = 0
 903              		@ link register save eliminated.
 272:Core/Src/main.c ****   uint8_t* str = org_str;
 904              		.loc 1 272 72 is_stmt 0 view .LVU273
 905 0000 10B4     		push	{r4}
 906              	.LCFI17:
 907              		.cfi_def_cfa_offset 4
 908              		.cfi_offset 4, -4
 909 0002 0446     		mov	r4, r0
 910 0004 0846     		mov	r0, r1
 911              	.LVL43:
 273:Core/Src/main.c ****   while(*str == thing) {str++; (*len)--;}
 912              		.loc 1 273 3 is_stmt 1 view .LVU274
 274:Core/Src/main.c ****   return str;
 913              		.loc 1 274 3 view .LVU275
 914              	.L37:
 274:Core/Src/main.c ****   return str;
 915              		.loc 1 274 8 discriminator 1 view .LVU276
 274:Core/Src/main.c ****   return str;
 916              		.loc 1 274 9 is_stmt 0 discriminator 1 view .LVU277
 917 0006 0378     		ldrb	r3, [r0]	@ zero_extendqisi2
 274:Core/Src/main.c ****   return str;
 918              		.loc 1 274 8 discriminator 1 view .LVU278
 919 0008 A342     		cmp	r3, r4
 920 000a 04D1     		bne	.L40
 274:Core/Src/main.c ****   return str;
 921              		.loc 1 274 25 is_stmt 1 discriminator 2 view .LVU279
 274:Core/Src/main.c ****   return str;
 922              		.loc 1 274 28 is_stmt 0 discriminator 2 view .LVU280
 923 000c 0130     		adds	r0, r0, #1
 924              	.LVL44:
 274:Core/Src/main.c ****   return str;
 925              		.loc 1 274 32 is_stmt 1 discriminator 2 view .LVU281
 274:Core/Src/main.c ****   return str;
 926              		.loc 1 274 33 is_stmt 0 discriminator 2 view .LVU282
 927 000e 1388     		ldrh	r3, [r2]
 274:Core/Src/main.c ****   return str;
 928              		.loc 1 274 38 discriminator 2 view .LVU283
 929 0010 013B     		subs	r3, r3, #1
 930 0012 1380     		strh	r3, [r2]	@ movhi
 931 0014 F7E7     		b	.L37
 932              	.L40:
 276:Core/Src/main.c **** 
 933              		.loc 1 276 1 view .LVU284
 934 0016 5DF8044B 		ldr	r4, [sp], #4
 935              	.LCFI18:
 936              		.cfi_restore 4
 937              		.cfi_def_cfa_offset 0
ARM GAS  /tmp/ccVvSPo8.s 			page 33


 938 001a 7047     		bx	lr
 939              		.cfi_endproc
 940              	.LFE154:
 942              		.section	.text.process_ascii_input,"ax",%progbits
 943              		.align	1
 944              		.global	process_ascii_input
 945              		.syntax unified
 946              		.thumb
 947              		.thumb_func
 948              		.fpu fpv5-d16
 950              	process_ascii_input:
 951              	.LVL45:
 952              	.LFB155:
 278:Core/Src/main.c ****     if(rx3_len <= 1) {
 953              		.loc 1 278 53 is_stmt 1 view -0
 954              		.cfi_startproc
 955              		@ args = 0, pretend = 0, frame = 8
 956              		@ frame_needed = 0, uses_anonymous_args = 0
 279:Core/Src/main.c ****       #ifdef Debug
 957              		.loc 1 279 5 view .LVU286
 279:Core/Src/main.c ****       #ifdef Debug
 958              		.loc 1 279 16 is_stmt 0 view .LVU287
 959 0000 124B     		ldr	r3, .L49
 960 0002 1B78     		ldrb	r3, [r3]	@ zero_extendqisi2
 961 0004 DBB2     		uxtb	r3, r3
 279:Core/Src/main.c ****       #ifdef Debug
 962              		.loc 1 279 7 view .LVU288
 963 0006 012B     		cmp	r3, #1
 964 0008 1DD9     		bls	.L44
 278:Core/Src/main.c ****     if(rx3_len <= 1) {
 965              		.loc 1 278 53 view .LVU289
 966 000a 30B5     		push	{r4, r5, lr}
 967              	.LCFI19:
 968              		.cfi_def_cfa_offset 12
 969              		.cfi_offset 4, -12
 970              		.cfi_offset 5, -8
 971              		.cfi_offset 14, -4
 972 000c 83B0     		sub	sp, sp, #12
 973              	.LCFI20:
 974              		.cfi_def_cfa_offset 24
 975 000e 0546     		mov	r5, r0
 976 0010 0C46     		mov	r4, r1
 286:Core/Src/main.c ****     uint8_t* rx3_clean_buf = trim_leading(' ',rx3_buf, &rx3_clean_len);
 977              		.loc 1 286 5 is_stmt 1 view .LVU290
 286:Core/Src/main.c ****     uint8_t* rx3_clean_buf = trim_leading(' ',rx3_buf, &rx3_clean_len);
 978              		.loc 1 286 14 is_stmt 0 view .LVU291
 979 0012 0E4B     		ldr	r3, .L49
 980 0014 1B78     		ldrb	r3, [r3]	@ zero_extendqisi2
 981 0016 ADF80630 		strh	r3, [sp, #6]	@ movhi
 287:Core/Src/main.c **** 
 982              		.loc 1 287 5 is_stmt 1 view .LVU292
 287:Core/Src/main.c **** 
 983              		.loc 1 287 30 is_stmt 0 view .LVU293
 984 001a 0DF10602 		add	r2, sp, #6
 985 001e 0C49     		ldr	r1, .L49+4
 986              	.LVL46:
 287:Core/Src/main.c **** 
ARM GAS  /tmp/ccVvSPo8.s 			page 34


 987              		.loc 1 287 30 view .LVU294
 988 0020 2020     		movs	r0, #32
 989              	.LVL47:
 287:Core/Src/main.c **** 
 990              		.loc 1 287 30 view .LVU295
 991 0022 FFF7FEFF 		bl	trim_leading
 992              	.LVL48:
 993 0026 0146     		mov	r1, r0
 994              	.LVL49:
 291:Core/Src/main.c ****     strncpy(result, (char*)rx3_clean_buf, copy_len-1);
 995              		.loc 1 291 5 is_stmt 1 view .LVU296
 291:Core/Src/main.c ****     strncpy(result, (char*)rx3_clean_buf, copy_len-1);
 996              		.loc 1 291 41 is_stmt 0 view .LVU297
 997 0028 A3B2     		uxth	r3, r4
 998 002a BDF80620 		ldrh	r2, [sp, #6]
 291:Core/Src/main.c ****     strncpy(result, (char*)rx3_clean_buf, copy_len-1);
 999              		.loc 1 291 13 view .LVU298
 1000 002e 9342     		cmp	r3, r2
 1001 0030 00D9     		bls	.L43
 291:Core/Src/main.c ****     strncpy(result, (char*)rx3_clean_buf, copy_len-1);
 1002              		.loc 1 291 13 discriminator 1 view .LVU299
 1003 0032 D4B2     		uxtb	r4, r2
 1004              	.L43:
 1005              	.LVL50:
 292:Core/Src/main.c ****     result[copy_len-1] = '\0';
 1006              		.loc 1 292 5 is_stmt 1 discriminator 4 view .LVU300
 292:Core/Src/main.c ****     result[copy_len-1] = '\0';
 1007              		.loc 1 292 51 is_stmt 0 discriminator 4 view .LVU301
 1008 0034 013C     		subs	r4, r4, #1
 1009              	.LVL51:
 292:Core/Src/main.c ****     result[copy_len-1] = '\0';
 1010              		.loc 1 292 5 discriminator 4 view .LVU302
 1011 0036 2246     		mov	r2, r4
 1012 0038 2846     		mov	r0, r5
 1013              	.LVL52:
 292:Core/Src/main.c ****     result[copy_len-1] = '\0';
 1014              		.loc 1 292 5 discriminator 4 view .LVU303
 1015 003a FFF7FEFF 		bl	strncpy
 1016              	.LVL53:
 293:Core/Src/main.c ****     return 0;
 1017              		.loc 1 293 5 is_stmt 1 discriminator 4 view .LVU304
 293:Core/Src/main.c ****     return 0;
 1018              		.loc 1 293 24 is_stmt 0 discriminator 4 view .LVU305
 1019 003e 0020     		movs	r0, #0
 1020 0040 2855     		strb	r0, [r5, r4]
 294:Core/Src/main.c **** }
 1021              		.loc 1 294 5 is_stmt 1 discriminator 4 view .LVU306
 295:Core/Src/main.c **** 
 1022              		.loc 1 295 1 is_stmt 0 discriminator 4 view .LVU307
 1023 0042 03B0     		add	sp, sp, #12
 1024              	.LCFI21:
 1025              		.cfi_def_cfa_offset 12
 1026              		@ sp needed
 1027 0044 30BD     		pop	{r4, r5, pc}
 1028              	.LVL54:
 1029              	.L44:
 1030              	.LCFI22:
ARM GAS  /tmp/ccVvSPo8.s 			page 35


 1031              		.cfi_def_cfa_offset 0
 1032              		.cfi_restore 4
 1033              		.cfi_restore 5
 1034              		.cfi_restore 14
 283:Core/Src/main.c ****     }
 1035              		.loc 1 283 14 view .LVU308
 1036 0046 0120     		movs	r0, #1
 1037              	.LVL55:
 295:Core/Src/main.c **** 
 1038              		.loc 1 295 1 view .LVU309
 1039 0048 7047     		bx	lr
 1040              	.L50:
 1041 004a 00BF     		.align	2
 1042              	.L49:
 1043 004c 00000000 		.word	.LANCHOR4
 1044 0050 00010000 		.word	.LANCHOR3+256
 1045              		.cfi_endproc
 1046              	.LFE155:
 1048              		.section	.text.process_hex_input,"ax",%progbits
 1049              		.align	1
 1050              		.global	process_hex_input
 1051              		.syntax unified
 1052              		.thumb
 1053              		.thumb_func
 1054              		.fpu fpv5-d16
 1056              	process_hex_input:
 1057              	.LVL56:
 1058              	.LFB156:
 297:Core/Src/main.c ****     if(rx3_len <= 1) {
 1059              		.loc 1 297 55 is_stmt 1 view -0
 1060              		.cfi_startproc
 1061              		@ args = 0, pretend = 0, frame = 8
 1062              		@ frame_needed = 0, uses_anonymous_args = 0
 298:Core/Src/main.c ****       #ifdef Debug
 1063              		.loc 1 298 5 view .LVU311
 298:Core/Src/main.c ****       #ifdef Debug
 1064              		.loc 1 298 16 is_stmt 0 view .LVU312
 1065 0000 154B     		ldr	r3, .L59
 1066 0002 1B78     		ldrb	r3, [r3]	@ zero_extendqisi2
 1067 0004 DBB2     		uxtb	r3, r3
 298:Core/Src/main.c ****       #ifdef Debug
 1068              		.loc 1 298 7 view .LVU313
 1069 0006 012B     		cmp	r3, #1
 1070 0008 23D9     		bls	.L54
 297:Core/Src/main.c ****     if(rx3_len <= 1) {
 1071              		.loc 1 297 55 view .LVU314
 1072 000a F0B5     		push	{r4, r5, r6, r7, lr}
 1073              	.LCFI23:
 1074              		.cfi_def_cfa_offset 20
 1075              		.cfi_offset 4, -20
 1076              		.cfi_offset 5, -16
 1077              		.cfi_offset 6, -12
 1078              		.cfi_offset 7, -8
 1079              		.cfi_offset 14, -4
 1080 000c 83B0     		sub	sp, sp, #12
 1081              	.LCFI24:
 1082              		.cfi_def_cfa_offset 32
ARM GAS  /tmp/ccVvSPo8.s 			page 36


 1083 000e 0546     		mov	r5, r0
 1084 0010 0C46     		mov	r4, r1
 305:Core/Src/main.c ****     uint8_t* rx3_clean_buf = trim_leading(0xFF, rx3_buf, &rx3_clean_len);
 1085              		.loc 1 305 5 is_stmt 1 view .LVU315
 305:Core/Src/main.c ****     uint8_t* rx3_clean_buf = trim_leading(0xFF, rx3_buf, &rx3_clean_len);
 1086              		.loc 1 305 14 is_stmt 0 view .LVU316
 1087 0012 114B     		ldr	r3, .L59
 1088 0014 1B78     		ldrb	r3, [r3]	@ zero_extendqisi2
 1089 0016 ADF80630 		strh	r3, [sp, #6]	@ movhi
 306:Core/Src/main.c **** 
 1090              		.loc 1 306 5 is_stmt 1 view .LVU317
 306:Core/Src/main.c **** 
 1091              		.loc 1 306 30 is_stmt 0 view .LVU318
 1092 001a 0DF10602 		add	r2, sp, #6
 1093 001e 0F49     		ldr	r1, .L59+4
 1094              	.LVL57:
 306:Core/Src/main.c **** 
 1095              		.loc 1 306 30 view .LVU319
 1096 0020 FF20     		movs	r0, #255
 1097              	.LVL58:
 306:Core/Src/main.c **** 
 1098              		.loc 1 306 30 view .LVU320
 1099 0022 FFF7FEFF 		bl	trim_leading
 1100              	.LVL59:
 1101 0026 0746     		mov	r7, r0
 1102              	.LVL60:
 310:Core/Src/main.c ****     uint8_t copy_len = ((rx3_clean_len) < (*size)) ? (rx3_clean_len) : (*size);
 1103              		.loc 1 310 5 is_stmt 1 view .LVU321
 1104 0028 2278     		ldrb	r2, [r4]	@ zero_extendqisi2
 1105 002a 0021     		movs	r1, #0
 1106 002c 2846     		mov	r0, r5
 1107              	.LVL61:
 310:Core/Src/main.c ****     uint8_t copy_len = ((rx3_clean_len) < (*size)) ? (rx3_clean_len) : (*size);
 1108              		.loc 1 310 5 is_stmt 0 view .LVU322
 1109 002e FFF7FEFF 		bl	memset
 1110              	.LVL62:
 311:Core/Src/main.c ****     memcpy(result, rx3_clean_buf, copy_len);
 1111              		.loc 1 311 5 is_stmt 1 view .LVU323
 311:Core/Src/main.c ****     memcpy(result, rx3_clean_buf, copy_len);
 1112              		.loc 1 311 44 is_stmt 0 view .LVU324
 1113 0032 2678     		ldrb	r6, [r4]	@ zero_extendqisi2
 1114 0034 B2B2     		uxth	r2, r6
 311:Core/Src/main.c ****     memcpy(result, rx3_clean_buf, copy_len);
 1115              		.loc 1 311 41 view .LVU325
 1116 0036 BDF80630 		ldrh	r3, [sp, #6]
 311:Core/Src/main.c ****     memcpy(result, rx3_clean_buf, copy_len);
 1117              		.loc 1 311 13 view .LVU326
 1118 003a 9A42     		cmp	r2, r3
 1119 003c 00D9     		bls	.L53
 311:Core/Src/main.c ****     memcpy(result, rx3_clean_buf, copy_len);
 1120              		.loc 1 311 13 discriminator 1 view .LVU327
 1121 003e DEB2     		uxtb	r6, r3
 1122              	.L53:
 1123              	.LVL63:
 312:Core/Src/main.c ****     *size = copy_len;
 1124              		.loc 1 312 5 is_stmt 1 discriminator 4 view .LVU328
 1125 0040 3246     		mov	r2, r6
ARM GAS  /tmp/ccVvSPo8.s 			page 37


 1126 0042 3946     		mov	r1, r7
 1127 0044 2846     		mov	r0, r5
 1128 0046 FFF7FEFF 		bl	memcpy
 1129              	.LVL64:
 313:Core/Src/main.c ****     return 0;
 1130              		.loc 1 313 5 discriminator 4 view .LVU329
 313:Core/Src/main.c ****     return 0;
 1131              		.loc 1 313 11 is_stmt 0 discriminator 4 view .LVU330
 1132 004a 2670     		strb	r6, [r4]
 314:Core/Src/main.c **** }
 1133              		.loc 1 314 5 is_stmt 1 discriminator 4 view .LVU331
 314:Core/Src/main.c **** }
 1134              		.loc 1 314 12 is_stmt 0 discriminator 4 view .LVU332
 1135 004c 0020     		movs	r0, #0
 315:Core/Src/main.c **** 
 1136              		.loc 1 315 1 discriminator 4 view .LVU333
 1137 004e 03B0     		add	sp, sp, #12
 1138              	.LCFI25:
 1139              		.cfi_def_cfa_offset 20
 1140              		@ sp needed
 1141 0050 F0BD     		pop	{r4, r5, r6, r7, pc}
 1142              	.LVL65:
 1143              	.L54:
 1144              	.LCFI26:
 1145              		.cfi_def_cfa_offset 0
 1146              		.cfi_restore 4
 1147              		.cfi_restore 5
 1148              		.cfi_restore 6
 1149              		.cfi_restore 7
 1150              		.cfi_restore 14
 302:Core/Src/main.c ****     }
 1151              		.loc 1 302 14 view .LVU334
 1152 0052 0120     		movs	r0, #1
 1153              	.LVL66:
 315:Core/Src/main.c **** 
 1154              		.loc 1 315 1 view .LVU335
 1155 0054 7047     		bx	lr
 1156              	.L60:
 1157 0056 00BF     		.align	2
 1158              	.L59:
 1159 0058 00000000 		.word	.LANCHOR4
 1160 005c 00010000 		.word	.LANCHOR3+256
 1161              		.cfi_endproc
 1162              	.LFE156:
 1164              		.section	.text.HAL_UARTEx_RxEventCallback,"ax",%progbits
 1165              		.align	1
 1166              		.global	HAL_UARTEx_RxEventCallback
 1167              		.syntax unified
 1168              		.thumb
 1169              		.thumb_func
 1170              		.fpu fpv5-d16
 1172              	HAL_UARTEx_RxEventCallback:
 1173              	.LVL67:
 1174              	.LFB162:
 722:Core/Src/main.c ****     if (huart->Instance == USART3)
 1175              		.loc 1 722 1 is_stmt 1 view -0
 1176              		.cfi_startproc
ARM GAS  /tmp/ccVvSPo8.s 			page 38


 1177              		@ args = 0, pretend = 0, frame = 0
 1178              		@ frame_needed = 0, uses_anonymous_args = 0
 722:Core/Src/main.c ****     if (huart->Instance == USART3)
 1179              		.loc 1 722 1 is_stmt 0 view .LVU337
 1180 0000 08B5     		push	{r3, lr}
 1181              	.LCFI27:
 1182              		.cfi_def_cfa_offset 8
 1183              		.cfi_offset 3, -8
 1184              		.cfi_offset 14, -4
 723:Core/Src/main.c ****     {
 1185              		.loc 1 723 5 is_stmt 1 view .LVU338
 723:Core/Src/main.c ****     {
 1186              		.loc 1 723 14 is_stmt 0 view .LVU339
 1187 0002 0268     		ldr	r2, [r0]
 723:Core/Src/main.c ****     {
 1188              		.loc 1 723 8 view .LVU340
 1189 0004 084B     		ldr	r3, .L65
 1190 0006 9A42     		cmp	r2, r3
 1191 0008 00D0     		beq	.L64
 1192              	.LVL68:
 1193              	.L61:
 733:Core/Src/main.c **** 
 1194              		.loc 1 733 1 view .LVU341
 1195 000a 08BD     		pop	{r3, pc}
 1196              	.LVL69:
 1197              	.L64:
 728:Core/Src/main.c ****           rx3_done = true;
 1198              		.loc 1 728 11 is_stmt 1 view .LVU342
 728:Core/Src/main.c ****           rx3_done = true;
 1199              		.loc 1 728 19 is_stmt 0 view .LVU343
 1200 000c C9B2     		uxtb	r1, r1
 1201              	.LVL70:
 728:Core/Src/main.c ****           rx3_done = true;
 1202              		.loc 1 728 19 view .LVU344
 1203 000e 074B     		ldr	r3, .L65+4
 1204 0010 1970     		strb	r1, [r3]
 729:Core/Src/main.c ****           HAL_UARTEx_ReceiveToIdle_DMA(&huart3, rx3_buf, RX3_BUF_SIZE);
 1205              		.loc 1 729 11 is_stmt 1 view .LVU345
 729:Core/Src/main.c ****           HAL_UARTEx_ReceiveToIdle_DMA(&huart3, rx3_buf, RX3_BUF_SIZE);
 1206              		.loc 1 729 20 is_stmt 0 view .LVU346
 1207 0012 074B     		ldr	r3, .L65+8
 1208 0014 0122     		movs	r2, #1
 1209 0016 1A70     		strb	r2, [r3]
 730:Core/Src/main.c ****         //}
 1210              		.loc 1 730 11 is_stmt 1 view .LVU347
 1211 0018 4FF48072 		mov	r2, #256
 1212 001c 0549     		ldr	r1, .L65+12
 1213 001e 0648     		ldr	r0, .L65+16
 1214              	.LVL71:
 730:Core/Src/main.c ****         //}
 1215              		.loc 1 730 11 is_stmt 0 view .LVU348
 1216 0020 FFF7FEFF 		bl	HAL_UARTEx_ReceiveToIdle_DMA
 1217              	.LVL72:
 733:Core/Src/main.c **** 
 1218              		.loc 1 733 1 view .LVU349
 1219 0024 F1E7     		b	.L61
 1220              	.L66:
ARM GAS  /tmp/ccVvSPo8.s 			page 39


 1221 0026 00BF     		.align	2
 1222              	.L65:
 1223 0028 00480040 		.word	1073760256
 1224 002c 00000000 		.word	.LANCHOR4
 1225 0030 00000000 		.word	.LANCHOR5
 1226 0034 00010000 		.word	.LANCHOR3+256
 1227 0038 00000000 		.word	huart3
 1228              		.cfi_endproc
 1229              	.LFE162:
 1231              		.section	.text.HAL_UART_ErrorCallback,"ax",%progbits
 1232              		.align	1
 1233              		.global	HAL_UART_ErrorCallback
 1234              		.syntax unified
 1235              		.thumb
 1236              		.thumb_func
 1237              		.fpu fpv5-d16
 1239              	HAL_UART_ErrorCallback:
 1240              	.LVL73:
 1241              	.LFB163:
 736:Core/Src/main.c ****     if (huart->Instance == huart3.Instance) 
 1242              		.loc 1 736 1 is_stmt 1 view -0
 1243              		.cfi_startproc
 1244              		@ args = 0, pretend = 0, frame = 0
 1245              		@ frame_needed = 0, uses_anonymous_args = 0
 737:Core/Src/main.c ****     {
 1246              		.loc 1 737 5 view .LVU351
 737:Core/Src/main.c ****     {
 1247              		.loc 1 737 14 is_stmt 0 view .LVU352
 1248 0000 0268     		ldr	r2, [r0]
 737:Core/Src/main.c ****     {
 1249              		.loc 1 737 34 view .LVU353
 1250 0002 124B     		ldr	r3, .L75
 1251 0004 1B68     		ldr	r3, [r3]
 737:Core/Src/main.c ****     {
 1252              		.loc 1 737 8 view .LVU354
 1253 0006 9A42     		cmp	r2, r3
 1254 0008 00D0     		beq	.L73
 1255 000a 7047     		bx	lr
 1256              	.L73:
 736:Core/Src/main.c ****     if (huart->Instance == huart3.Instance) 
 1257              		.loc 1 736 1 view .LVU355
 1258 000c 70B5     		push	{r4, r5, r6, lr}
 1259              	.LCFI28:
 1260              		.cfi_def_cfa_offset 16
 1261              		.cfi_offset 4, -16
 1262              		.cfi_offset 5, -12
 1263              		.cfi_offset 6, -8
 1264              		.cfi_offset 14, -4
 1265 000e 0446     		mov	r4, r0
 1266              	.LBB17:
 739:Core/Src/main.c ****           if (err & (HAL_UART_ERROR_ORE | HAL_UART_ERROR_NE | HAL_UART_ERROR_FE | HAL_UART_ERROR_PE
 1267              		.loc 1 739 9 is_stmt 1 view .LVU356
 739:Core/Src/main.c ****           if (err & (HAL_UART_ERROR_ORE | HAL_UART_ERROR_NE | HAL_UART_ERROR_FE | HAL_UART_ERROR_PE
 1268              		.loc 1 739 18 is_stmt 0 view .LVU357
 1269 0010 D0F89030 		ldr	r3, [r0, #144]
 1270              	.LVL74:
 740:Core/Src/main.c ****               HAL_UART_AbortReceive(huart);
ARM GAS  /tmp/ccVvSPo8.s 			page 40


 1271              		.loc 1 740 11 is_stmt 1 view .LVU358
 740:Core/Src/main.c ****               HAL_UART_AbortReceive(huart);
 1272              		.loc 1 740 14 is_stmt 0 view .LVU359
 1273 0014 13F00F0F 		tst	r3, #15
 1274 0018 00D1     		bne	.L74
 1275              	.LVL75:
 1276              	.L67:
 740:Core/Src/main.c ****               HAL_UART_AbortReceive(huart);
 1277              		.loc 1 740 14 view .LVU360
 1278              	.LBE17:
 748:Core/Src/main.c **** /* USER CODE END 4 */
 1279              		.loc 1 748 1 view .LVU361
 1280 001a 70BD     		pop	{r4, r5, r6, pc}
 1281              	.LVL76:
 1282              	.L74:
 1283              	.LBB18:
 741:Core/Src/main.c ****               __HAL_UART_SEND_REQ(huart, UART_RXDATA_FLUSH_REQUEST);
 1284              		.loc 1 741 15 is_stmt 1 view .LVU362
 1285 001c FFF7FEFF 		bl	HAL_UART_AbortReceive
 1286              	.LVL77:
 742:Core/Src/main.c ****               __HAL_UART_CLEAR_FLAG(huart, UART_CLEAR_OREF | UART_CLEAR_NEF | UART_CLEAR_FEF | UART
 1287              		.loc 1 742 15 view .LVU363
 1288 0020 2268     		ldr	r2, [r4]
 1289 0022 9369     		ldr	r3, [r2, #24]
 1290 0024 43F00803 		orr	r3, r3, #8
 1291 0028 9361     		str	r3, [r2, #24]
 743:Core/Src/main.c ****               memset(rx3_buf, 0, RX3_BUF_SIZE);
 1292              		.loc 1 743 15 view .LVU364
 1293 002a 2368     		ldr	r3, [r4]
 1294 002c 0F22     		movs	r2, #15
 1295 002e 1A62     		str	r2, [r3, #32]
 744:Core/Src/main.c ****               HAL_UARTEx_ReceiveToIdle_DMA(huart, rx3_buf, RX3_BUF_SIZE);
 1296              		.loc 1 744 15 view .LVU365
 1297 0030 074D     		ldr	r5, .L75+4
 1298 0032 4FF48076 		mov	r6, #256
 1299 0036 3246     		mov	r2, r6
 1300 0038 0021     		movs	r1, #0
 1301 003a 2846     		mov	r0, r5
 1302 003c FFF7FEFF 		bl	memset
 1303              	.LVL78:
 745:Core/Src/main.c ****           }
 1304              		.loc 1 745 15 view .LVU366
 1305 0040 3246     		mov	r2, r6
 1306 0042 2946     		mov	r1, r5
 1307 0044 2046     		mov	r0, r4
 1308 0046 FFF7FEFF 		bl	HAL_UARTEx_ReceiveToIdle_DMA
 1309              	.LVL79:
 1310              	.LBE18:
 748:Core/Src/main.c **** /* USER CODE END 4 */
 1311              		.loc 1 748 1 is_stmt 0 view .LVU367
 1312 004a E6E7     		b	.L67
 1313              	.L76:
 1314              		.align	2
 1315              	.L75:
 1316 004c 00000000 		.word	huart3
 1317 0050 00010000 		.word	.LANCHOR3+256
 1318              		.cfi_endproc
ARM GAS  /tmp/ccVvSPo8.s 			page 41


 1319              	.LFE163:
 1321              		.section	.text.Error_Handler,"ax",%progbits
 1322              		.align	1
 1323              		.global	Error_Handler
 1324              		.syntax unified
 1325              		.thumb
 1326              		.thumb_func
 1327              		.fpu fpv5-d16
 1329              	Error_Handler:
 1330              	.LFB165:
 779:Core/Src/main.c **** 
 780:Core/Src/main.c **** /**
 781:Core/Src/main.c ****   * @brief  This function is executed in case of error occurrence.
 782:Core/Src/main.c ****   * @retval None
 783:Core/Src/main.c ****   */
 784:Core/Src/main.c **** void Error_Handler(void)
 785:Core/Src/main.c **** {
 1331              		.loc 1 785 1 is_stmt 1 view -0
 1332              		.cfi_startproc
 1333              		@ Volatile: function does not return.
 1334              		@ args = 0, pretend = 0, frame = 0
 1335              		@ frame_needed = 0, uses_anonymous_args = 0
 1336              		@ link register save eliminated.
 786:Core/Src/main.c ****   /* USER CODE BEGIN Error_Handler_Debug */
 787:Core/Src/main.c ****   /* User can add his own implementation to report the HAL error return state */
 788:Core/Src/main.c ****   __disable_irq();
 1337              		.loc 1 788 3 view .LVU369
 1338              	.LBB19:
 1339              	.LBI19:
 1340              		.file 2 "Drivers/CMSIS/Include/cmsis_gcc.h"
   1:Drivers/CMSIS/Include/cmsis_gcc.h **** /**************************************************************************//**
   2:Drivers/CMSIS/Include/cmsis_gcc.h ****  * @file     cmsis_gcc.h
   3:Drivers/CMSIS/Include/cmsis_gcc.h ****  * @brief    CMSIS compiler GCC header file
   4:Drivers/CMSIS/Include/cmsis_gcc.h ****  * @version  V5.4.1
   5:Drivers/CMSIS/Include/cmsis_gcc.h ****  * @date     27. May 2021
   6:Drivers/CMSIS/Include/cmsis_gcc.h ****  ******************************************************************************/
   7:Drivers/CMSIS/Include/cmsis_gcc.h **** /*
   8:Drivers/CMSIS/Include/cmsis_gcc.h ****  * Copyright (c) 2009-2021 Arm Limited. All rights reserved.
   9:Drivers/CMSIS/Include/cmsis_gcc.h ****  *
  10:Drivers/CMSIS/Include/cmsis_gcc.h ****  * SPDX-License-Identifier: Apache-2.0
  11:Drivers/CMSIS/Include/cmsis_gcc.h ****  *
  12:Drivers/CMSIS/Include/cmsis_gcc.h ****  * Licensed under the Apache License, Version 2.0 (the License); you may
  13:Drivers/CMSIS/Include/cmsis_gcc.h ****  * not use this file except in compliance with the License.
  14:Drivers/CMSIS/Include/cmsis_gcc.h ****  * You may obtain a copy of the License at
  15:Drivers/CMSIS/Include/cmsis_gcc.h ****  *
  16:Drivers/CMSIS/Include/cmsis_gcc.h ****  * www.apache.org/licenses/LICENSE-2.0
  17:Drivers/CMSIS/Include/cmsis_gcc.h ****  *
  18:Drivers/CMSIS/Include/cmsis_gcc.h ****  * Unless required by applicable law or agreed to in writing, software
  19:Drivers/CMSIS/Include/cmsis_gcc.h ****  * distributed under the License is distributed on an AS IS BASIS, WITHOUT
  20:Drivers/CMSIS/Include/cmsis_gcc.h ****  * WARRANTIES OR CONDITIONS OF ANY KIND, either express or implied.
  21:Drivers/CMSIS/Include/cmsis_gcc.h ****  * See the License for the specific language governing permissions and
  22:Drivers/CMSIS/Include/cmsis_gcc.h ****  * limitations under the License.
  23:Drivers/CMSIS/Include/cmsis_gcc.h ****  */
  24:Drivers/CMSIS/Include/cmsis_gcc.h **** 
  25:Drivers/CMSIS/Include/cmsis_gcc.h **** #ifndef __CMSIS_GCC_H
  26:Drivers/CMSIS/Include/cmsis_gcc.h **** #define __CMSIS_GCC_H
  27:Drivers/CMSIS/Include/cmsis_gcc.h **** 
ARM GAS  /tmp/ccVvSPo8.s 			page 42


  28:Drivers/CMSIS/Include/cmsis_gcc.h **** /* ignore some GCC warnings */
  29:Drivers/CMSIS/Include/cmsis_gcc.h **** #pragma GCC diagnostic push
  30:Drivers/CMSIS/Include/cmsis_gcc.h **** #pragma GCC diagnostic ignored "-Wsign-conversion"
  31:Drivers/CMSIS/Include/cmsis_gcc.h **** #pragma GCC diagnostic ignored "-Wconversion"
  32:Drivers/CMSIS/Include/cmsis_gcc.h **** #pragma GCC diagnostic ignored "-Wunused-parameter"
  33:Drivers/CMSIS/Include/cmsis_gcc.h **** 
  34:Drivers/CMSIS/Include/cmsis_gcc.h **** /* Fallback for __has_builtin */
  35:Drivers/CMSIS/Include/cmsis_gcc.h **** #ifndef __has_builtin
  36:Drivers/CMSIS/Include/cmsis_gcc.h ****   #define __has_builtin(x) (0)
  37:Drivers/CMSIS/Include/cmsis_gcc.h **** #endif
  38:Drivers/CMSIS/Include/cmsis_gcc.h **** 
  39:Drivers/CMSIS/Include/cmsis_gcc.h **** /* CMSIS compiler specific defines */
  40:Drivers/CMSIS/Include/cmsis_gcc.h **** #ifndef   __ASM
  41:Drivers/CMSIS/Include/cmsis_gcc.h ****   #define __ASM                                  __asm
  42:Drivers/CMSIS/Include/cmsis_gcc.h **** #endif
  43:Drivers/CMSIS/Include/cmsis_gcc.h **** #ifndef   __INLINE
  44:Drivers/CMSIS/Include/cmsis_gcc.h ****   #define __INLINE                               inline
  45:Drivers/CMSIS/Include/cmsis_gcc.h **** #endif
  46:Drivers/CMSIS/Include/cmsis_gcc.h **** #ifndef   __STATIC_INLINE
  47:Drivers/CMSIS/Include/cmsis_gcc.h ****   #define __STATIC_INLINE                        static inline
  48:Drivers/CMSIS/Include/cmsis_gcc.h **** #endif
  49:Drivers/CMSIS/Include/cmsis_gcc.h **** #ifndef   __STATIC_FORCEINLINE
  50:Drivers/CMSIS/Include/cmsis_gcc.h ****   #define __STATIC_FORCEINLINE                   __attribute__((always_inline)) static inline
  51:Drivers/CMSIS/Include/cmsis_gcc.h **** #endif
  52:Drivers/CMSIS/Include/cmsis_gcc.h **** #ifndef   __NO_RETURN
  53:Drivers/CMSIS/Include/cmsis_gcc.h ****   #define __NO_RETURN                            __attribute__((__noreturn__))
  54:Drivers/CMSIS/Include/cmsis_gcc.h **** #endif
  55:Drivers/CMSIS/Include/cmsis_gcc.h **** #ifndef   __USED
  56:Drivers/CMSIS/Include/cmsis_gcc.h ****   #define __USED                                 __attribute__((used))
  57:Drivers/CMSIS/Include/cmsis_gcc.h **** #endif
  58:Drivers/CMSIS/Include/cmsis_gcc.h **** #ifndef   __WEAK
  59:Drivers/CMSIS/Include/cmsis_gcc.h ****   #define __WEAK                                 __attribute__((weak))
  60:Drivers/CMSIS/Include/cmsis_gcc.h **** #endif
  61:Drivers/CMSIS/Include/cmsis_gcc.h **** #ifndef   __PACKED
  62:Drivers/CMSIS/Include/cmsis_gcc.h ****   #define __PACKED                               __attribute__((packed, aligned(1)))
  63:Drivers/CMSIS/Include/cmsis_gcc.h **** #endif
  64:Drivers/CMSIS/Include/cmsis_gcc.h **** #ifndef   __PACKED_STRUCT
  65:Drivers/CMSIS/Include/cmsis_gcc.h ****   #define __PACKED_STRUCT                        struct __attribute__((packed, aligned(1)))
  66:Drivers/CMSIS/Include/cmsis_gcc.h **** #endif
  67:Drivers/CMSIS/Include/cmsis_gcc.h **** #ifndef   __PACKED_UNION
  68:Drivers/CMSIS/Include/cmsis_gcc.h ****   #define __PACKED_UNION                         union __attribute__((packed, aligned(1)))
  69:Drivers/CMSIS/Include/cmsis_gcc.h **** #endif
  70:Drivers/CMSIS/Include/cmsis_gcc.h **** #ifndef   __UNALIGNED_UINT32        /* deprecated */
  71:Drivers/CMSIS/Include/cmsis_gcc.h ****   #pragma GCC diagnostic push
  72:Drivers/CMSIS/Include/cmsis_gcc.h ****   #pragma GCC diagnostic ignored "-Wpacked"
  73:Drivers/CMSIS/Include/cmsis_gcc.h ****   #pragma GCC diagnostic ignored "-Wattributes"
  74:Drivers/CMSIS/Include/cmsis_gcc.h ****   struct __attribute__((packed)) T_UINT32 { uint32_t v; };
  75:Drivers/CMSIS/Include/cmsis_gcc.h ****   #pragma GCC diagnostic pop
  76:Drivers/CMSIS/Include/cmsis_gcc.h ****   #define __UNALIGNED_UINT32(x)                  (((struct T_UINT32 *)(x))->v)
  77:Drivers/CMSIS/Include/cmsis_gcc.h **** #endif
  78:Drivers/CMSIS/Include/cmsis_gcc.h **** #ifndef   __UNALIGNED_UINT16_WRITE
  79:Drivers/CMSIS/Include/cmsis_gcc.h ****   #pragma GCC diagnostic push
  80:Drivers/CMSIS/Include/cmsis_gcc.h ****   #pragma GCC diagnostic ignored "-Wpacked"
  81:Drivers/CMSIS/Include/cmsis_gcc.h ****   #pragma GCC diagnostic ignored "-Wattributes"
  82:Drivers/CMSIS/Include/cmsis_gcc.h ****   __PACKED_STRUCT T_UINT16_WRITE { uint16_t v; };
  83:Drivers/CMSIS/Include/cmsis_gcc.h ****   #pragma GCC diagnostic pop
  84:Drivers/CMSIS/Include/cmsis_gcc.h ****   #define __UNALIGNED_UINT16_WRITE(addr, val)    (void)((((struct T_UINT16_WRITE *)(void *)(addr))-
ARM GAS  /tmp/ccVvSPo8.s 			page 43


  85:Drivers/CMSIS/Include/cmsis_gcc.h **** #endif
  86:Drivers/CMSIS/Include/cmsis_gcc.h **** #ifndef   __UNALIGNED_UINT16_READ
  87:Drivers/CMSIS/Include/cmsis_gcc.h ****   #pragma GCC diagnostic push
  88:Drivers/CMSIS/Include/cmsis_gcc.h ****   #pragma GCC diagnostic ignored "-Wpacked"
  89:Drivers/CMSIS/Include/cmsis_gcc.h ****   #pragma GCC diagnostic ignored "-Wattributes"
  90:Drivers/CMSIS/Include/cmsis_gcc.h ****   __PACKED_STRUCT T_UINT16_READ { uint16_t v; };
  91:Drivers/CMSIS/Include/cmsis_gcc.h ****   #pragma GCC diagnostic pop
  92:Drivers/CMSIS/Include/cmsis_gcc.h ****   #define __UNALIGNED_UINT16_READ(addr)          (((const struct T_UINT16_READ *)(const void *)(add
  93:Drivers/CMSIS/Include/cmsis_gcc.h **** #endif
  94:Drivers/CMSIS/Include/cmsis_gcc.h **** #ifndef   __UNALIGNED_UINT32_WRITE
  95:Drivers/CMSIS/Include/cmsis_gcc.h ****   #pragma GCC diagnostic push
  96:Drivers/CMSIS/Include/cmsis_gcc.h ****   #pragma GCC diagnostic ignored "-Wpacked"
  97:Drivers/CMSIS/Include/cmsis_gcc.h ****   #pragma GCC diagnostic ignored "-Wattributes"
  98:Drivers/CMSIS/Include/cmsis_gcc.h ****   __PACKED_STRUCT T_UINT32_WRITE { uint32_t v; };
  99:Drivers/CMSIS/Include/cmsis_gcc.h ****   #pragma GCC diagnostic pop
 100:Drivers/CMSIS/Include/cmsis_gcc.h ****   #define __UNALIGNED_UINT32_WRITE(addr, val)    (void)((((struct T_UINT32_WRITE *)(void *)(addr))-
 101:Drivers/CMSIS/Include/cmsis_gcc.h **** #endif
 102:Drivers/CMSIS/Include/cmsis_gcc.h **** #ifndef   __UNALIGNED_UINT32_READ
 103:Drivers/CMSIS/Include/cmsis_gcc.h ****   #pragma GCC diagnostic push
 104:Drivers/CMSIS/Include/cmsis_gcc.h ****   #pragma GCC diagnostic ignored "-Wpacked"
 105:Drivers/CMSIS/Include/cmsis_gcc.h ****   #pragma GCC diagnostic ignored "-Wattributes"
 106:Drivers/CMSIS/Include/cmsis_gcc.h ****   __PACKED_STRUCT T_UINT32_READ { uint32_t v; };
 107:Drivers/CMSIS/Include/cmsis_gcc.h ****   #pragma GCC diagnostic pop
 108:Drivers/CMSIS/Include/cmsis_gcc.h ****   #define __UNALIGNED_UINT32_READ(addr)          (((const struct T_UINT32_READ *)(const void *)(add
 109:Drivers/CMSIS/Include/cmsis_gcc.h **** #endif
 110:Drivers/CMSIS/Include/cmsis_gcc.h **** #ifndef   __ALIGNED
 111:Drivers/CMSIS/Include/cmsis_gcc.h ****   #define __ALIGNED(x)                           __attribute__((aligned(x)))
 112:Drivers/CMSIS/Include/cmsis_gcc.h **** #endif
 113:Drivers/CMSIS/Include/cmsis_gcc.h **** #ifndef   __RESTRICT
 114:Drivers/CMSIS/Include/cmsis_gcc.h ****   #define __RESTRICT                             __restrict
 115:Drivers/CMSIS/Include/cmsis_gcc.h **** #endif
 116:Drivers/CMSIS/Include/cmsis_gcc.h **** #ifndef   __COMPILER_BARRIER
 117:Drivers/CMSIS/Include/cmsis_gcc.h ****   #define __COMPILER_BARRIER()                   __ASM volatile("":::"memory")
 118:Drivers/CMSIS/Include/cmsis_gcc.h **** #endif
 119:Drivers/CMSIS/Include/cmsis_gcc.h **** 
 120:Drivers/CMSIS/Include/cmsis_gcc.h **** /* #########################  Startup and Lowlevel Init  ######################## */
 121:Drivers/CMSIS/Include/cmsis_gcc.h **** 
 122:Drivers/CMSIS/Include/cmsis_gcc.h **** #ifndef __PROGRAM_START
 123:Drivers/CMSIS/Include/cmsis_gcc.h **** 
 124:Drivers/CMSIS/Include/cmsis_gcc.h **** /**
 125:Drivers/CMSIS/Include/cmsis_gcc.h ****   \brief   Initializes data and bss sections
 126:Drivers/CMSIS/Include/cmsis_gcc.h ****   \details This default implementations initialized all data and additional bss
 127:Drivers/CMSIS/Include/cmsis_gcc.h ****            sections relying on .copy.table and .zero.table specified properly
 128:Drivers/CMSIS/Include/cmsis_gcc.h ****            in the used linker script.
 129:Drivers/CMSIS/Include/cmsis_gcc.h **** 
 130:Drivers/CMSIS/Include/cmsis_gcc.h ****  */
 131:Drivers/CMSIS/Include/cmsis_gcc.h **** __STATIC_FORCEINLINE __NO_RETURN void __cmsis_start(void)
 132:Drivers/CMSIS/Include/cmsis_gcc.h **** {
 133:Drivers/CMSIS/Include/cmsis_gcc.h ****   extern void _start(void) __NO_RETURN;
 134:Drivers/CMSIS/Include/cmsis_gcc.h **** 
 135:Drivers/CMSIS/Include/cmsis_gcc.h ****   typedef struct {
 136:Drivers/CMSIS/Include/cmsis_gcc.h ****     uint32_t const* src;
 137:Drivers/CMSIS/Include/cmsis_gcc.h ****     uint32_t* dest;
 138:Drivers/CMSIS/Include/cmsis_gcc.h ****     uint32_t  wlen;
 139:Drivers/CMSIS/Include/cmsis_gcc.h ****   } __copy_table_t;
 140:Drivers/CMSIS/Include/cmsis_gcc.h **** 
 141:Drivers/CMSIS/Include/cmsis_gcc.h ****   typedef struct {
ARM GAS  /tmp/ccVvSPo8.s 			page 44


 142:Drivers/CMSIS/Include/cmsis_gcc.h ****     uint32_t* dest;
 143:Drivers/CMSIS/Include/cmsis_gcc.h ****     uint32_t  wlen;
 144:Drivers/CMSIS/Include/cmsis_gcc.h ****   } __zero_table_t;
 145:Drivers/CMSIS/Include/cmsis_gcc.h **** 
 146:Drivers/CMSIS/Include/cmsis_gcc.h ****   extern const __copy_table_t __copy_table_start__;
 147:Drivers/CMSIS/Include/cmsis_gcc.h ****   extern const __copy_table_t __copy_table_end__;
 148:Drivers/CMSIS/Include/cmsis_gcc.h ****   extern const __zero_table_t __zero_table_start__;
 149:Drivers/CMSIS/Include/cmsis_gcc.h ****   extern const __zero_table_t __zero_table_end__;
 150:Drivers/CMSIS/Include/cmsis_gcc.h **** 
 151:Drivers/CMSIS/Include/cmsis_gcc.h ****   for (__copy_table_t const* pTable = &__copy_table_start__; pTable < &__copy_table_end__; ++pTable
 152:Drivers/CMSIS/Include/cmsis_gcc.h ****     for(uint32_t i=0u; i<pTable->wlen; ++i) {
 153:Drivers/CMSIS/Include/cmsis_gcc.h ****       pTable->dest[i] = pTable->src[i];
 154:Drivers/CMSIS/Include/cmsis_gcc.h ****     }
 155:Drivers/CMSIS/Include/cmsis_gcc.h ****   }
 156:Drivers/CMSIS/Include/cmsis_gcc.h **** 
 157:Drivers/CMSIS/Include/cmsis_gcc.h ****   for (__zero_table_t const* pTable = &__zero_table_start__; pTable < &__zero_table_end__; ++pTable
 158:Drivers/CMSIS/Include/cmsis_gcc.h ****     for(uint32_t i=0u; i<pTable->wlen; ++i) {
 159:Drivers/CMSIS/Include/cmsis_gcc.h ****       pTable->dest[i] = 0u;
 160:Drivers/CMSIS/Include/cmsis_gcc.h ****     }
 161:Drivers/CMSIS/Include/cmsis_gcc.h ****   }
 162:Drivers/CMSIS/Include/cmsis_gcc.h **** 
 163:Drivers/CMSIS/Include/cmsis_gcc.h ****   _start();
 164:Drivers/CMSIS/Include/cmsis_gcc.h **** }
 165:Drivers/CMSIS/Include/cmsis_gcc.h **** 
 166:Drivers/CMSIS/Include/cmsis_gcc.h **** #define __PROGRAM_START           __cmsis_start
 167:Drivers/CMSIS/Include/cmsis_gcc.h **** #endif
 168:Drivers/CMSIS/Include/cmsis_gcc.h **** 
 169:Drivers/CMSIS/Include/cmsis_gcc.h **** #ifndef __INITIAL_SP
 170:Drivers/CMSIS/Include/cmsis_gcc.h **** #define __INITIAL_SP              __StackTop
 171:Drivers/CMSIS/Include/cmsis_gcc.h **** #endif
 172:Drivers/CMSIS/Include/cmsis_gcc.h **** 
 173:Drivers/CMSIS/Include/cmsis_gcc.h **** #ifndef __STACK_LIMIT
 174:Drivers/CMSIS/Include/cmsis_gcc.h **** #define __STACK_LIMIT             __StackLimit
 175:Drivers/CMSIS/Include/cmsis_gcc.h **** #endif
 176:Drivers/CMSIS/Include/cmsis_gcc.h **** 
 177:Drivers/CMSIS/Include/cmsis_gcc.h **** #ifndef __VECTOR_TABLE
 178:Drivers/CMSIS/Include/cmsis_gcc.h **** #define __VECTOR_TABLE            __Vectors
 179:Drivers/CMSIS/Include/cmsis_gcc.h **** #endif
 180:Drivers/CMSIS/Include/cmsis_gcc.h **** 
 181:Drivers/CMSIS/Include/cmsis_gcc.h **** #ifndef __VECTOR_TABLE_ATTRIBUTE
 182:Drivers/CMSIS/Include/cmsis_gcc.h **** #define __VECTOR_TABLE_ATTRIBUTE  __attribute__((used, section(".vectors")))
 183:Drivers/CMSIS/Include/cmsis_gcc.h **** #endif
 184:Drivers/CMSIS/Include/cmsis_gcc.h **** 
 185:Drivers/CMSIS/Include/cmsis_gcc.h **** #if defined (__ARM_FEATURE_CMSE) && (__ARM_FEATURE_CMSE == 3U)
 186:Drivers/CMSIS/Include/cmsis_gcc.h **** #ifndef __STACK_SEAL
 187:Drivers/CMSIS/Include/cmsis_gcc.h **** #define __STACK_SEAL              __StackSeal
 188:Drivers/CMSIS/Include/cmsis_gcc.h **** #endif
 189:Drivers/CMSIS/Include/cmsis_gcc.h **** 
 190:Drivers/CMSIS/Include/cmsis_gcc.h **** #ifndef __TZ_STACK_SEAL_SIZE
 191:Drivers/CMSIS/Include/cmsis_gcc.h **** #define __TZ_STACK_SEAL_SIZE      8U
 192:Drivers/CMSIS/Include/cmsis_gcc.h **** #endif
 193:Drivers/CMSIS/Include/cmsis_gcc.h **** 
 194:Drivers/CMSIS/Include/cmsis_gcc.h **** #ifndef __TZ_STACK_SEAL_VALUE
 195:Drivers/CMSIS/Include/cmsis_gcc.h **** #define __TZ_STACK_SEAL_VALUE     0xFEF5EDA5FEF5EDA5ULL
 196:Drivers/CMSIS/Include/cmsis_gcc.h **** #endif
 197:Drivers/CMSIS/Include/cmsis_gcc.h **** 
 198:Drivers/CMSIS/Include/cmsis_gcc.h **** 
ARM GAS  /tmp/ccVvSPo8.s 			page 45


 199:Drivers/CMSIS/Include/cmsis_gcc.h **** __STATIC_FORCEINLINE void __TZ_set_STACKSEAL_S (uint32_t* stackTop) {
 200:Drivers/CMSIS/Include/cmsis_gcc.h ****   *((uint64_t *)stackTop) = __TZ_STACK_SEAL_VALUE;
 201:Drivers/CMSIS/Include/cmsis_gcc.h **** }
 202:Drivers/CMSIS/Include/cmsis_gcc.h **** #endif
 203:Drivers/CMSIS/Include/cmsis_gcc.h **** 
 204:Drivers/CMSIS/Include/cmsis_gcc.h **** 
 205:Drivers/CMSIS/Include/cmsis_gcc.h **** /* ##########################  Core Instruction Access  ######################### */
 206:Drivers/CMSIS/Include/cmsis_gcc.h **** /** \defgroup CMSIS_Core_InstructionInterface CMSIS Core Instruction Interface
 207:Drivers/CMSIS/Include/cmsis_gcc.h ****   Access to dedicated instructions
 208:Drivers/CMSIS/Include/cmsis_gcc.h ****   @{
 209:Drivers/CMSIS/Include/cmsis_gcc.h **** */
 210:Drivers/CMSIS/Include/cmsis_gcc.h **** 
 211:Drivers/CMSIS/Include/cmsis_gcc.h **** /* Define macros for porting to both thumb1 and thumb2.
 212:Drivers/CMSIS/Include/cmsis_gcc.h ****  * For thumb1, use low register (r0-r7), specified by constraint "l"
 213:Drivers/CMSIS/Include/cmsis_gcc.h ****  * Otherwise, use general registers, specified by constraint "r" */
 214:Drivers/CMSIS/Include/cmsis_gcc.h **** #if defined (__thumb__) && !defined (__thumb2__)
 215:Drivers/CMSIS/Include/cmsis_gcc.h **** #define __CMSIS_GCC_OUT_REG(r) "=l" (r)
 216:Drivers/CMSIS/Include/cmsis_gcc.h **** #define __CMSIS_GCC_RW_REG(r) "+l" (r)
 217:Drivers/CMSIS/Include/cmsis_gcc.h **** #define __CMSIS_GCC_USE_REG(r) "l" (r)
 218:Drivers/CMSIS/Include/cmsis_gcc.h **** #else
 219:Drivers/CMSIS/Include/cmsis_gcc.h **** #define __CMSIS_GCC_OUT_REG(r) "=r" (r)
 220:Drivers/CMSIS/Include/cmsis_gcc.h **** #define __CMSIS_GCC_RW_REG(r) "+r" (r)
 221:Drivers/CMSIS/Include/cmsis_gcc.h **** #define __CMSIS_GCC_USE_REG(r) "r" (r)
 222:Drivers/CMSIS/Include/cmsis_gcc.h **** #endif
 223:Drivers/CMSIS/Include/cmsis_gcc.h **** 
 224:Drivers/CMSIS/Include/cmsis_gcc.h **** /**
 225:Drivers/CMSIS/Include/cmsis_gcc.h ****   \brief   No Operation
 226:Drivers/CMSIS/Include/cmsis_gcc.h ****   \details No Operation does nothing. This instruction can be used for code alignment purposes.
 227:Drivers/CMSIS/Include/cmsis_gcc.h ****  */
 228:Drivers/CMSIS/Include/cmsis_gcc.h **** #define __NOP()                             __ASM volatile ("nop")
 229:Drivers/CMSIS/Include/cmsis_gcc.h **** 
 230:Drivers/CMSIS/Include/cmsis_gcc.h **** /**
 231:Drivers/CMSIS/Include/cmsis_gcc.h ****   \brief   Wait For Interrupt
 232:Drivers/CMSIS/Include/cmsis_gcc.h ****   \details Wait For Interrupt is a hint instruction that suspends execution until one of a number o
 233:Drivers/CMSIS/Include/cmsis_gcc.h ****  */
 234:Drivers/CMSIS/Include/cmsis_gcc.h **** #define __WFI()                             __ASM volatile ("wfi":::"memory")
 235:Drivers/CMSIS/Include/cmsis_gcc.h **** 
 236:Drivers/CMSIS/Include/cmsis_gcc.h **** 
 237:Drivers/CMSIS/Include/cmsis_gcc.h **** /**
 238:Drivers/CMSIS/Include/cmsis_gcc.h ****   \brief   Wait For Event
 239:Drivers/CMSIS/Include/cmsis_gcc.h ****   \details Wait For Event is a hint instruction that permits the processor to enter
 240:Drivers/CMSIS/Include/cmsis_gcc.h ****            a low-power state until one of a number of events occurs.
 241:Drivers/CMSIS/Include/cmsis_gcc.h ****  */
 242:Drivers/CMSIS/Include/cmsis_gcc.h **** #define __WFE()                             __ASM volatile ("wfe":::"memory")
 243:Drivers/CMSIS/Include/cmsis_gcc.h **** 
 244:Drivers/CMSIS/Include/cmsis_gcc.h **** 
 245:Drivers/CMSIS/Include/cmsis_gcc.h **** /**
 246:Drivers/CMSIS/Include/cmsis_gcc.h ****   \brief   Send Event
 247:Drivers/CMSIS/Include/cmsis_gcc.h ****   \details Send Event is a hint instruction. It causes an event to be signaled to the CPU.
 248:Drivers/CMSIS/Include/cmsis_gcc.h ****  */
 249:Drivers/CMSIS/Include/cmsis_gcc.h **** #define __SEV()                             __ASM volatile ("sev")
 250:Drivers/CMSIS/Include/cmsis_gcc.h **** 
 251:Drivers/CMSIS/Include/cmsis_gcc.h **** 
 252:Drivers/CMSIS/Include/cmsis_gcc.h **** /**
 253:Drivers/CMSIS/Include/cmsis_gcc.h ****   \brief   Instruction Synchronization Barrier
 254:Drivers/CMSIS/Include/cmsis_gcc.h ****   \details Instruction Synchronization Barrier flushes the pipeline in the processor,
 255:Drivers/CMSIS/Include/cmsis_gcc.h ****            so that all instructions following the ISB are fetched from cache or memory,
ARM GAS  /tmp/ccVvSPo8.s 			page 46


 256:Drivers/CMSIS/Include/cmsis_gcc.h ****            after the instruction has been completed.
 257:Drivers/CMSIS/Include/cmsis_gcc.h ****  */
 258:Drivers/CMSIS/Include/cmsis_gcc.h **** __STATIC_FORCEINLINE void __ISB(void)
 259:Drivers/CMSIS/Include/cmsis_gcc.h **** {
 260:Drivers/CMSIS/Include/cmsis_gcc.h ****   __ASM volatile ("isb 0xF":::"memory");
 261:Drivers/CMSIS/Include/cmsis_gcc.h **** }
 262:Drivers/CMSIS/Include/cmsis_gcc.h **** 
 263:Drivers/CMSIS/Include/cmsis_gcc.h **** 
 264:Drivers/CMSIS/Include/cmsis_gcc.h **** /**
 265:Drivers/CMSIS/Include/cmsis_gcc.h ****   \brief   Data Synchronization Barrier
 266:Drivers/CMSIS/Include/cmsis_gcc.h ****   \details Acts as a special kind of Data Memory Barrier.
 267:Drivers/CMSIS/Include/cmsis_gcc.h ****            It completes when all explicit memory accesses before this instruction complete.
 268:Drivers/CMSIS/Include/cmsis_gcc.h ****  */
 269:Drivers/CMSIS/Include/cmsis_gcc.h **** __STATIC_FORCEINLINE void __DSB(void)
 270:Drivers/CMSIS/Include/cmsis_gcc.h **** {
 271:Drivers/CMSIS/Include/cmsis_gcc.h ****   __ASM volatile ("dsb 0xF":::"memory");
 272:Drivers/CMSIS/Include/cmsis_gcc.h **** }
 273:Drivers/CMSIS/Include/cmsis_gcc.h **** 
 274:Drivers/CMSIS/Include/cmsis_gcc.h **** 
 275:Drivers/CMSIS/Include/cmsis_gcc.h **** /**
 276:Drivers/CMSIS/Include/cmsis_gcc.h ****   \brief   Data Memory Barrier
 277:Drivers/CMSIS/Include/cmsis_gcc.h ****   \details Ensures the apparent order of the explicit memory operations before
 278:Drivers/CMSIS/Include/cmsis_gcc.h ****            and after the instruction, without ensuring their completion.
 279:Drivers/CMSIS/Include/cmsis_gcc.h ****  */
 280:Drivers/CMSIS/Include/cmsis_gcc.h **** __STATIC_FORCEINLINE void __DMB(void)
 281:Drivers/CMSIS/Include/cmsis_gcc.h **** {
 282:Drivers/CMSIS/Include/cmsis_gcc.h ****   __ASM volatile ("dmb 0xF":::"memory");
 283:Drivers/CMSIS/Include/cmsis_gcc.h **** }
 284:Drivers/CMSIS/Include/cmsis_gcc.h **** 
 285:Drivers/CMSIS/Include/cmsis_gcc.h **** 
 286:Drivers/CMSIS/Include/cmsis_gcc.h **** /**
 287:Drivers/CMSIS/Include/cmsis_gcc.h ****   \brief   Reverse byte order (32 bit)
 288:Drivers/CMSIS/Include/cmsis_gcc.h ****   \details Reverses the byte order in unsigned integer value. For example, 0x12345678 becomes 0x785
 289:Drivers/CMSIS/Include/cmsis_gcc.h ****   \param [in]    value  Value to reverse
 290:Drivers/CMSIS/Include/cmsis_gcc.h ****   \return               Reversed value
 291:Drivers/CMSIS/Include/cmsis_gcc.h ****  */
 292:Drivers/CMSIS/Include/cmsis_gcc.h **** __STATIC_FORCEINLINE uint32_t __REV(uint32_t value)
 293:Drivers/CMSIS/Include/cmsis_gcc.h **** {
 294:Drivers/CMSIS/Include/cmsis_gcc.h **** #if (__GNUC__ > 4) || (__GNUC__ == 4 && __GNUC_MINOR__ >= 5)
 295:Drivers/CMSIS/Include/cmsis_gcc.h ****   return __builtin_bswap32(value);
 296:Drivers/CMSIS/Include/cmsis_gcc.h **** #else
 297:Drivers/CMSIS/Include/cmsis_gcc.h ****   uint32_t result;
 298:Drivers/CMSIS/Include/cmsis_gcc.h **** 
 299:Drivers/CMSIS/Include/cmsis_gcc.h ****   __ASM ("rev %0, %1" : __CMSIS_GCC_OUT_REG (result) : __CMSIS_GCC_USE_REG (value) );
 300:Drivers/CMSIS/Include/cmsis_gcc.h ****   return result;
 301:Drivers/CMSIS/Include/cmsis_gcc.h **** #endif
 302:Drivers/CMSIS/Include/cmsis_gcc.h **** }
 303:Drivers/CMSIS/Include/cmsis_gcc.h **** 
 304:Drivers/CMSIS/Include/cmsis_gcc.h **** 
 305:Drivers/CMSIS/Include/cmsis_gcc.h **** /**
 306:Drivers/CMSIS/Include/cmsis_gcc.h ****   \brief   Reverse byte order (16 bit)
 307:Drivers/CMSIS/Include/cmsis_gcc.h ****   \details Reverses the byte order within each halfword of a word. For example, 0x12345678 becomes 
 308:Drivers/CMSIS/Include/cmsis_gcc.h ****   \param [in]    value  Value to reverse
 309:Drivers/CMSIS/Include/cmsis_gcc.h ****   \return               Reversed value
 310:Drivers/CMSIS/Include/cmsis_gcc.h ****  */
 311:Drivers/CMSIS/Include/cmsis_gcc.h **** __STATIC_FORCEINLINE uint32_t __REV16(uint32_t value)
 312:Drivers/CMSIS/Include/cmsis_gcc.h **** {
ARM GAS  /tmp/ccVvSPo8.s 			page 47


 313:Drivers/CMSIS/Include/cmsis_gcc.h ****   uint32_t result;
 314:Drivers/CMSIS/Include/cmsis_gcc.h **** 
 315:Drivers/CMSIS/Include/cmsis_gcc.h ****   __ASM ("rev16 %0, %1" : __CMSIS_GCC_OUT_REG (result) : __CMSIS_GCC_USE_REG (value) );
 316:Drivers/CMSIS/Include/cmsis_gcc.h ****   return result;
 317:Drivers/CMSIS/Include/cmsis_gcc.h **** }
 318:Drivers/CMSIS/Include/cmsis_gcc.h **** 
 319:Drivers/CMSIS/Include/cmsis_gcc.h **** 
 320:Drivers/CMSIS/Include/cmsis_gcc.h **** /**
 321:Drivers/CMSIS/Include/cmsis_gcc.h ****   \brief   Reverse byte order (16 bit)
 322:Drivers/CMSIS/Include/cmsis_gcc.h ****   \details Reverses the byte order in a 16-bit value and returns the signed 16-bit result. For exam
 323:Drivers/CMSIS/Include/cmsis_gcc.h ****   \param [in]    value  Value to reverse
 324:Drivers/CMSIS/Include/cmsis_gcc.h ****   \return               Reversed value
 325:Drivers/CMSIS/Include/cmsis_gcc.h ****  */
 326:Drivers/CMSIS/Include/cmsis_gcc.h **** __STATIC_FORCEINLINE int16_t __REVSH(int16_t value)
 327:Drivers/CMSIS/Include/cmsis_gcc.h **** {
 328:Drivers/CMSIS/Include/cmsis_gcc.h **** #if (__GNUC__ > 4) || (__GNUC__ == 4 && __GNUC_MINOR__ >= 8)
 329:Drivers/CMSIS/Include/cmsis_gcc.h ****   return (int16_t)__builtin_bswap16(value);
 330:Drivers/CMSIS/Include/cmsis_gcc.h **** #else
 331:Drivers/CMSIS/Include/cmsis_gcc.h ****   int16_t result;
 332:Drivers/CMSIS/Include/cmsis_gcc.h **** 
 333:Drivers/CMSIS/Include/cmsis_gcc.h ****   __ASM ("revsh %0, %1" : __CMSIS_GCC_OUT_REG (result) : __CMSIS_GCC_USE_REG (value) );
 334:Drivers/CMSIS/Include/cmsis_gcc.h ****   return result;
 335:Drivers/CMSIS/Include/cmsis_gcc.h **** #endif
 336:Drivers/CMSIS/Include/cmsis_gcc.h **** }
 337:Drivers/CMSIS/Include/cmsis_gcc.h **** 
 338:Drivers/CMSIS/Include/cmsis_gcc.h **** 
 339:Drivers/CMSIS/Include/cmsis_gcc.h **** /**
 340:Drivers/CMSIS/Include/cmsis_gcc.h ****   \brief   Rotate Right in unsigned value (32 bit)
 341:Drivers/CMSIS/Include/cmsis_gcc.h ****   \details Rotate Right (immediate) provides the value of the contents of a register rotated by a v
 342:Drivers/CMSIS/Include/cmsis_gcc.h ****   \param [in]    op1  Value to rotate
 343:Drivers/CMSIS/Include/cmsis_gcc.h ****   \param [in]    op2  Number of Bits to rotate
 344:Drivers/CMSIS/Include/cmsis_gcc.h ****   \return               Rotated value
 345:Drivers/CMSIS/Include/cmsis_gcc.h ****  */
 346:Drivers/CMSIS/Include/cmsis_gcc.h **** __STATIC_FORCEINLINE uint32_t __ROR(uint32_t op1, uint32_t op2)
 347:Drivers/CMSIS/Include/cmsis_gcc.h **** {
 348:Drivers/CMSIS/Include/cmsis_gcc.h ****   op2 %= 32U;
 349:Drivers/CMSIS/Include/cmsis_gcc.h ****   if (op2 == 0U)
 350:Drivers/CMSIS/Include/cmsis_gcc.h ****   {
 351:Drivers/CMSIS/Include/cmsis_gcc.h ****     return op1;
 352:Drivers/CMSIS/Include/cmsis_gcc.h ****   }
 353:Drivers/CMSIS/Include/cmsis_gcc.h ****   return (op1 >> op2) | (op1 << (32U - op2));
 354:Drivers/CMSIS/Include/cmsis_gcc.h **** }
 355:Drivers/CMSIS/Include/cmsis_gcc.h **** 
 356:Drivers/CMSIS/Include/cmsis_gcc.h **** 
 357:Drivers/CMSIS/Include/cmsis_gcc.h **** /**
 358:Drivers/CMSIS/Include/cmsis_gcc.h ****   \brief   Breakpoint
 359:Drivers/CMSIS/Include/cmsis_gcc.h ****   \details Causes the processor to enter Debug state.
 360:Drivers/CMSIS/Include/cmsis_gcc.h ****            Debug tools can use this to investigate system state when the instruction at a particula
 361:Drivers/CMSIS/Include/cmsis_gcc.h ****   \param [in]    value  is ignored by the processor.
 362:Drivers/CMSIS/Include/cmsis_gcc.h ****                  If required, a debugger can use it to store additional information about the break
 363:Drivers/CMSIS/Include/cmsis_gcc.h ****  */
 364:Drivers/CMSIS/Include/cmsis_gcc.h **** #define __BKPT(value)                       __ASM volatile ("bkpt "#value)
 365:Drivers/CMSIS/Include/cmsis_gcc.h **** 
 366:Drivers/CMSIS/Include/cmsis_gcc.h **** 
 367:Drivers/CMSIS/Include/cmsis_gcc.h **** /**
 368:Drivers/CMSIS/Include/cmsis_gcc.h ****   \brief   Reverse bit order of value
 369:Drivers/CMSIS/Include/cmsis_gcc.h ****   \details Reverses the bit order of the given value.
ARM GAS  /tmp/ccVvSPo8.s 			page 48


 370:Drivers/CMSIS/Include/cmsis_gcc.h ****   \param [in]    value  Value to reverse
 371:Drivers/CMSIS/Include/cmsis_gcc.h ****   \return               Reversed value
 372:Drivers/CMSIS/Include/cmsis_gcc.h ****  */
 373:Drivers/CMSIS/Include/cmsis_gcc.h **** __STATIC_FORCEINLINE uint32_t __RBIT(uint32_t value)
 374:Drivers/CMSIS/Include/cmsis_gcc.h **** {
 375:Drivers/CMSIS/Include/cmsis_gcc.h ****   uint32_t result;
 376:Drivers/CMSIS/Include/cmsis_gcc.h **** 
 377:Drivers/CMSIS/Include/cmsis_gcc.h **** #if ((defined (__ARM_ARCH_7M__      ) && (__ARM_ARCH_7M__      == 1)) || \
 378:Drivers/CMSIS/Include/cmsis_gcc.h ****      (defined (__ARM_ARCH_7EM__     ) && (__ARM_ARCH_7EM__     == 1)) || \
 379:Drivers/CMSIS/Include/cmsis_gcc.h ****      (defined (__ARM_ARCH_8M_MAIN__ ) && (__ARM_ARCH_8M_MAIN__ == 1))    )
 380:Drivers/CMSIS/Include/cmsis_gcc.h ****    __ASM ("rbit %0, %1" : "=r" (result) : "r" (value) );
 381:Drivers/CMSIS/Include/cmsis_gcc.h **** #else
 382:Drivers/CMSIS/Include/cmsis_gcc.h ****   uint32_t s = (4U /*sizeof(v)*/ * 8U) - 1U; /* extra shift needed at end */
 383:Drivers/CMSIS/Include/cmsis_gcc.h **** 
 384:Drivers/CMSIS/Include/cmsis_gcc.h ****   result = value;                      /* r will be reversed bits of v; first get LSB of v */
 385:Drivers/CMSIS/Include/cmsis_gcc.h ****   for (value >>= 1U; value != 0U; value >>= 1U)
 386:Drivers/CMSIS/Include/cmsis_gcc.h ****   {
 387:Drivers/CMSIS/Include/cmsis_gcc.h ****     result <<= 1U;
 388:Drivers/CMSIS/Include/cmsis_gcc.h ****     result |= value & 1U;
 389:Drivers/CMSIS/Include/cmsis_gcc.h ****     s--;
 390:Drivers/CMSIS/Include/cmsis_gcc.h ****   }
 391:Drivers/CMSIS/Include/cmsis_gcc.h ****   result <<= s;                        /* shift when v's highest bits are zero */
 392:Drivers/CMSIS/Include/cmsis_gcc.h **** #endif
 393:Drivers/CMSIS/Include/cmsis_gcc.h ****   return result;
 394:Drivers/CMSIS/Include/cmsis_gcc.h **** }
 395:Drivers/CMSIS/Include/cmsis_gcc.h **** 
 396:Drivers/CMSIS/Include/cmsis_gcc.h **** 
 397:Drivers/CMSIS/Include/cmsis_gcc.h **** /**
 398:Drivers/CMSIS/Include/cmsis_gcc.h ****   \brief   Count leading zeros
 399:Drivers/CMSIS/Include/cmsis_gcc.h ****   \details Counts the number of leading zeros of a data value.
 400:Drivers/CMSIS/Include/cmsis_gcc.h ****   \param [in]  value  Value to count the leading zeros
 401:Drivers/CMSIS/Include/cmsis_gcc.h ****   \return             number of leading zeros in value
 402:Drivers/CMSIS/Include/cmsis_gcc.h ****  */
 403:Drivers/CMSIS/Include/cmsis_gcc.h **** __STATIC_FORCEINLINE uint8_t __CLZ(uint32_t value)
 404:Drivers/CMSIS/Include/cmsis_gcc.h **** {
 405:Drivers/CMSIS/Include/cmsis_gcc.h ****   /* Even though __builtin_clz produces a CLZ instruction on ARM, formally
 406:Drivers/CMSIS/Include/cmsis_gcc.h ****      __builtin_clz(0) is undefined behaviour, so handle this case specially.
 407:Drivers/CMSIS/Include/cmsis_gcc.h ****      This guarantees ARM-compatible results if happening to compile on a non-ARM
 408:Drivers/CMSIS/Include/cmsis_gcc.h ****      target, and ensures the compiler doesn't decide to activate any
 409:Drivers/CMSIS/Include/cmsis_gcc.h ****      optimisations using the logic "value was passed to __builtin_clz, so it
 410:Drivers/CMSIS/Include/cmsis_gcc.h ****      is non-zero".
 411:Drivers/CMSIS/Include/cmsis_gcc.h ****      ARM GCC 7.3 and possibly earlier will optimise this test away, leaving a
 412:Drivers/CMSIS/Include/cmsis_gcc.h ****      single CLZ instruction.
 413:Drivers/CMSIS/Include/cmsis_gcc.h ****    */
 414:Drivers/CMSIS/Include/cmsis_gcc.h ****   if (value == 0U)
 415:Drivers/CMSIS/Include/cmsis_gcc.h ****   {
 416:Drivers/CMSIS/Include/cmsis_gcc.h ****     return 32U;
 417:Drivers/CMSIS/Include/cmsis_gcc.h ****   }
 418:Drivers/CMSIS/Include/cmsis_gcc.h ****   return __builtin_clz(value);
 419:Drivers/CMSIS/Include/cmsis_gcc.h **** }
 420:Drivers/CMSIS/Include/cmsis_gcc.h **** 
 421:Drivers/CMSIS/Include/cmsis_gcc.h **** 
 422:Drivers/CMSIS/Include/cmsis_gcc.h **** #if ((defined (__ARM_ARCH_7M__      ) && (__ARM_ARCH_7M__      == 1)) || \
 423:Drivers/CMSIS/Include/cmsis_gcc.h ****      (defined (__ARM_ARCH_7EM__     ) && (__ARM_ARCH_7EM__     == 1)) || \
 424:Drivers/CMSIS/Include/cmsis_gcc.h ****      (defined (__ARM_ARCH_8M_MAIN__ ) && (__ARM_ARCH_8M_MAIN__ == 1)) || \
 425:Drivers/CMSIS/Include/cmsis_gcc.h ****      (defined (__ARM_ARCH_8M_BASE__ ) && (__ARM_ARCH_8M_BASE__ == 1))    )
 426:Drivers/CMSIS/Include/cmsis_gcc.h **** /**
ARM GAS  /tmp/ccVvSPo8.s 			page 49


 427:Drivers/CMSIS/Include/cmsis_gcc.h ****   \brief   LDR Exclusive (8 bit)
 428:Drivers/CMSIS/Include/cmsis_gcc.h ****   \details Executes a exclusive LDR instruction for 8 bit value.
 429:Drivers/CMSIS/Include/cmsis_gcc.h ****   \param [in]    ptr  Pointer to data
 430:Drivers/CMSIS/Include/cmsis_gcc.h ****   \return             value of type uint8_t at (*ptr)
 431:Drivers/CMSIS/Include/cmsis_gcc.h ****  */
 432:Drivers/CMSIS/Include/cmsis_gcc.h **** __STATIC_FORCEINLINE uint8_t __LDREXB(volatile uint8_t *addr)
 433:Drivers/CMSIS/Include/cmsis_gcc.h **** {
 434:Drivers/CMSIS/Include/cmsis_gcc.h ****     uint32_t result;
 435:Drivers/CMSIS/Include/cmsis_gcc.h **** 
 436:Drivers/CMSIS/Include/cmsis_gcc.h **** #if (__GNUC__ > 4) || (__GNUC__ == 4 && __GNUC_MINOR__ >= 8)
 437:Drivers/CMSIS/Include/cmsis_gcc.h ****    __ASM volatile ("ldrexb %0, %1" : "=r" (result) : "Q" (*addr) );
 438:Drivers/CMSIS/Include/cmsis_gcc.h **** #else
 439:Drivers/CMSIS/Include/cmsis_gcc.h ****     /* Prior to GCC 4.8, "Q" will be expanded to [rx, #0] which is not
 440:Drivers/CMSIS/Include/cmsis_gcc.h ****        accepted by assembler. So has to use following less efficient pattern.
 441:Drivers/CMSIS/Include/cmsis_gcc.h ****     */
 442:Drivers/CMSIS/Include/cmsis_gcc.h ****    __ASM volatile ("ldrexb %0, [%1]" : "=r" (result) : "r" (addr) : "memory" );
 443:Drivers/CMSIS/Include/cmsis_gcc.h **** #endif
 444:Drivers/CMSIS/Include/cmsis_gcc.h ****    return ((uint8_t) result);    /* Add explicit type cast here */
 445:Drivers/CMSIS/Include/cmsis_gcc.h **** }
 446:Drivers/CMSIS/Include/cmsis_gcc.h **** 
 447:Drivers/CMSIS/Include/cmsis_gcc.h **** 
 448:Drivers/CMSIS/Include/cmsis_gcc.h **** /**
 449:Drivers/CMSIS/Include/cmsis_gcc.h ****   \brief   LDR Exclusive (16 bit)
 450:Drivers/CMSIS/Include/cmsis_gcc.h ****   \details Executes a exclusive LDR instruction for 16 bit values.
 451:Drivers/CMSIS/Include/cmsis_gcc.h ****   \param [in]    ptr  Pointer to data
 452:Drivers/CMSIS/Include/cmsis_gcc.h ****   \return        value of type uint16_t at (*ptr)
 453:Drivers/CMSIS/Include/cmsis_gcc.h ****  */
 454:Drivers/CMSIS/Include/cmsis_gcc.h **** __STATIC_FORCEINLINE uint16_t __LDREXH(volatile uint16_t *addr)
 455:Drivers/CMSIS/Include/cmsis_gcc.h **** {
 456:Drivers/CMSIS/Include/cmsis_gcc.h ****     uint32_t result;
 457:Drivers/CMSIS/Include/cmsis_gcc.h **** 
 458:Drivers/CMSIS/Include/cmsis_gcc.h **** #if (__GNUC__ > 4) || (__GNUC__ == 4 && __GNUC_MINOR__ >= 8)
 459:Drivers/CMSIS/Include/cmsis_gcc.h ****    __ASM volatile ("ldrexh %0, %1" : "=r" (result) : "Q" (*addr) );
 460:Drivers/CMSIS/Include/cmsis_gcc.h **** #else
 461:Drivers/CMSIS/Include/cmsis_gcc.h ****     /* Prior to GCC 4.8, "Q" will be expanded to [rx, #0] which is not
 462:Drivers/CMSIS/Include/cmsis_gcc.h ****        accepted by assembler. So has to use following less efficient pattern.
 463:Drivers/CMSIS/Include/cmsis_gcc.h ****     */
 464:Drivers/CMSIS/Include/cmsis_gcc.h ****    __ASM volatile ("ldrexh %0, [%1]" : "=r" (result) : "r" (addr) : "memory" );
 465:Drivers/CMSIS/Include/cmsis_gcc.h **** #endif
 466:Drivers/CMSIS/Include/cmsis_gcc.h ****    return ((uint16_t) result);    /* Add explicit type cast here */
 467:Drivers/CMSIS/Include/cmsis_gcc.h **** }
 468:Drivers/CMSIS/Include/cmsis_gcc.h **** 
 469:Drivers/CMSIS/Include/cmsis_gcc.h **** 
 470:Drivers/CMSIS/Include/cmsis_gcc.h **** /**
 471:Drivers/CMSIS/Include/cmsis_gcc.h ****   \brief   LDR Exclusive (32 bit)
 472:Drivers/CMSIS/Include/cmsis_gcc.h ****   \details Executes a exclusive LDR instruction for 32 bit values.
 473:Drivers/CMSIS/Include/cmsis_gcc.h ****   \param [in]    ptr  Pointer to data
 474:Drivers/CMSIS/Include/cmsis_gcc.h ****   \return        value of type uint32_t at (*ptr)
 475:Drivers/CMSIS/Include/cmsis_gcc.h ****  */
 476:Drivers/CMSIS/Include/cmsis_gcc.h **** __STATIC_FORCEINLINE uint32_t __LDREXW(volatile uint32_t *addr)
 477:Drivers/CMSIS/Include/cmsis_gcc.h **** {
 478:Drivers/CMSIS/Include/cmsis_gcc.h ****     uint32_t result;
 479:Drivers/CMSIS/Include/cmsis_gcc.h **** 
 480:Drivers/CMSIS/Include/cmsis_gcc.h ****    __ASM volatile ("ldrex %0, %1" : "=r" (result) : "Q" (*addr) );
 481:Drivers/CMSIS/Include/cmsis_gcc.h ****    return(result);
 482:Drivers/CMSIS/Include/cmsis_gcc.h **** }
 483:Drivers/CMSIS/Include/cmsis_gcc.h **** 
ARM GAS  /tmp/ccVvSPo8.s 			page 50


 484:Drivers/CMSIS/Include/cmsis_gcc.h **** 
 485:Drivers/CMSIS/Include/cmsis_gcc.h **** /**
 486:Drivers/CMSIS/Include/cmsis_gcc.h ****   \brief   STR Exclusive (8 bit)
 487:Drivers/CMSIS/Include/cmsis_gcc.h ****   \details Executes a exclusive STR instruction for 8 bit values.
 488:Drivers/CMSIS/Include/cmsis_gcc.h ****   \param [in]  value  Value to store
 489:Drivers/CMSIS/Include/cmsis_gcc.h ****   \param [in]    ptr  Pointer to location
 490:Drivers/CMSIS/Include/cmsis_gcc.h ****   \return          0  Function succeeded
 491:Drivers/CMSIS/Include/cmsis_gcc.h ****   \return          1  Function failed
 492:Drivers/CMSIS/Include/cmsis_gcc.h ****  */
 493:Drivers/CMSIS/Include/cmsis_gcc.h **** __STATIC_FORCEINLINE uint32_t __STREXB(uint8_t value, volatile uint8_t *addr)
 494:Drivers/CMSIS/Include/cmsis_gcc.h **** {
 495:Drivers/CMSIS/Include/cmsis_gcc.h ****    uint32_t result;
 496:Drivers/CMSIS/Include/cmsis_gcc.h **** 
 497:Drivers/CMSIS/Include/cmsis_gcc.h ****    __ASM volatile ("strexb %0, %2, %1" : "=&r" (result), "=Q" (*addr) : "r" ((uint32_t)value) );
 498:Drivers/CMSIS/Include/cmsis_gcc.h ****    return(result);
 499:Drivers/CMSIS/Include/cmsis_gcc.h **** }
 500:Drivers/CMSIS/Include/cmsis_gcc.h **** 
 501:Drivers/CMSIS/Include/cmsis_gcc.h **** 
 502:Drivers/CMSIS/Include/cmsis_gcc.h **** /**
 503:Drivers/CMSIS/Include/cmsis_gcc.h ****   \brief   STR Exclusive (16 bit)
 504:Drivers/CMSIS/Include/cmsis_gcc.h ****   \details Executes a exclusive STR instruction for 16 bit values.
 505:Drivers/CMSIS/Include/cmsis_gcc.h ****   \param [in]  value  Value to store
 506:Drivers/CMSIS/Include/cmsis_gcc.h ****   \param [in]    ptr  Pointer to location
 507:Drivers/CMSIS/Include/cmsis_gcc.h ****   \return          0  Function succeeded
 508:Drivers/CMSIS/Include/cmsis_gcc.h ****   \return          1  Function failed
 509:Drivers/CMSIS/Include/cmsis_gcc.h ****  */
 510:Drivers/CMSIS/Include/cmsis_gcc.h **** __STATIC_FORCEINLINE uint32_t __STREXH(uint16_t value, volatile uint16_t *addr)
 511:Drivers/CMSIS/Include/cmsis_gcc.h **** {
 512:Drivers/CMSIS/Include/cmsis_gcc.h ****    uint32_t result;
 513:Drivers/CMSIS/Include/cmsis_gcc.h **** 
 514:Drivers/CMSIS/Include/cmsis_gcc.h ****    __ASM volatile ("strexh %0, %2, %1" : "=&r" (result), "=Q" (*addr) : "r" ((uint32_t)value) );
 515:Drivers/CMSIS/Include/cmsis_gcc.h ****    return(result);
 516:Drivers/CMSIS/Include/cmsis_gcc.h **** }
 517:Drivers/CMSIS/Include/cmsis_gcc.h **** 
 518:Drivers/CMSIS/Include/cmsis_gcc.h **** 
 519:Drivers/CMSIS/Include/cmsis_gcc.h **** /**
 520:Drivers/CMSIS/Include/cmsis_gcc.h ****   \brief   STR Exclusive (32 bit)
 521:Drivers/CMSIS/Include/cmsis_gcc.h ****   \details Executes a exclusive STR instruction for 32 bit values.
 522:Drivers/CMSIS/Include/cmsis_gcc.h ****   \param [in]  value  Value to store
 523:Drivers/CMSIS/Include/cmsis_gcc.h ****   \param [in]    ptr  Pointer to location
 524:Drivers/CMSIS/Include/cmsis_gcc.h ****   \return          0  Function succeeded
 525:Drivers/CMSIS/Include/cmsis_gcc.h ****   \return          1  Function failed
 526:Drivers/CMSIS/Include/cmsis_gcc.h ****  */
 527:Drivers/CMSIS/Include/cmsis_gcc.h **** __STATIC_FORCEINLINE uint32_t __STREXW(uint32_t value, volatile uint32_t *addr)
 528:Drivers/CMSIS/Include/cmsis_gcc.h **** {
 529:Drivers/CMSIS/Include/cmsis_gcc.h ****    uint32_t result;
 530:Drivers/CMSIS/Include/cmsis_gcc.h **** 
 531:Drivers/CMSIS/Include/cmsis_gcc.h ****    __ASM volatile ("strex %0, %2, %1" : "=&r" (result), "=Q" (*addr) : "r" (value) );
 532:Drivers/CMSIS/Include/cmsis_gcc.h ****    return(result);
 533:Drivers/CMSIS/Include/cmsis_gcc.h **** }
 534:Drivers/CMSIS/Include/cmsis_gcc.h **** 
 535:Drivers/CMSIS/Include/cmsis_gcc.h **** 
 536:Drivers/CMSIS/Include/cmsis_gcc.h **** /**
 537:Drivers/CMSIS/Include/cmsis_gcc.h ****   \brief   Remove the exclusive lock
 538:Drivers/CMSIS/Include/cmsis_gcc.h ****   \details Removes the exclusive lock which is created by LDREX.
 539:Drivers/CMSIS/Include/cmsis_gcc.h ****  */
 540:Drivers/CMSIS/Include/cmsis_gcc.h **** __STATIC_FORCEINLINE void __CLREX(void)
ARM GAS  /tmp/ccVvSPo8.s 			page 51


 541:Drivers/CMSIS/Include/cmsis_gcc.h **** {
 542:Drivers/CMSIS/Include/cmsis_gcc.h ****   __ASM volatile ("clrex" ::: "memory");
 543:Drivers/CMSIS/Include/cmsis_gcc.h **** }
 544:Drivers/CMSIS/Include/cmsis_gcc.h **** 
 545:Drivers/CMSIS/Include/cmsis_gcc.h **** #endif /* ((defined (__ARM_ARCH_7M__      ) && (__ARM_ARCH_7M__      == 1)) || \
 546:Drivers/CMSIS/Include/cmsis_gcc.h ****            (defined (__ARM_ARCH_7EM__     ) && (__ARM_ARCH_7EM__     == 1)) || \
 547:Drivers/CMSIS/Include/cmsis_gcc.h ****            (defined (__ARM_ARCH_8M_MAIN__ ) && (__ARM_ARCH_8M_MAIN__ == 1)) || \
 548:Drivers/CMSIS/Include/cmsis_gcc.h ****            (defined (__ARM_ARCH_8M_BASE__ ) && (__ARM_ARCH_8M_BASE__ == 1))    ) */
 549:Drivers/CMSIS/Include/cmsis_gcc.h **** 
 550:Drivers/CMSIS/Include/cmsis_gcc.h **** 
 551:Drivers/CMSIS/Include/cmsis_gcc.h **** #if ((defined (__ARM_ARCH_7M__      ) && (__ARM_ARCH_7M__      == 1)) || \
 552:Drivers/CMSIS/Include/cmsis_gcc.h ****      (defined (__ARM_ARCH_7EM__     ) && (__ARM_ARCH_7EM__     == 1)) || \
 553:Drivers/CMSIS/Include/cmsis_gcc.h ****      (defined (__ARM_ARCH_8M_MAIN__ ) && (__ARM_ARCH_8M_MAIN__ == 1))    )
 554:Drivers/CMSIS/Include/cmsis_gcc.h **** /**
 555:Drivers/CMSIS/Include/cmsis_gcc.h ****   \brief   Signed Saturate
 556:Drivers/CMSIS/Include/cmsis_gcc.h ****   \details Saturates a signed value.
 557:Drivers/CMSIS/Include/cmsis_gcc.h ****   \param [in]  ARG1  Value to be saturated
 558:Drivers/CMSIS/Include/cmsis_gcc.h ****   \param [in]  ARG2  Bit position to saturate to (1..32)
 559:Drivers/CMSIS/Include/cmsis_gcc.h ****   \return             Saturated value
 560:Drivers/CMSIS/Include/cmsis_gcc.h ****  */
 561:Drivers/CMSIS/Include/cmsis_gcc.h **** #define __SSAT(ARG1, ARG2) \
 562:Drivers/CMSIS/Include/cmsis_gcc.h **** __extension__ \
 563:Drivers/CMSIS/Include/cmsis_gcc.h **** ({                          \
 564:Drivers/CMSIS/Include/cmsis_gcc.h ****   int32_t __RES, __ARG1 = (ARG1); \
 565:Drivers/CMSIS/Include/cmsis_gcc.h ****   __ASM volatile ("ssat %0, %1, %2" : "=r" (__RES) :  "I" (ARG2), "r" (__ARG1) : "cc" ); \
 566:Drivers/CMSIS/Include/cmsis_gcc.h ****   __RES; \
 567:Drivers/CMSIS/Include/cmsis_gcc.h ****  })
 568:Drivers/CMSIS/Include/cmsis_gcc.h **** 
 569:Drivers/CMSIS/Include/cmsis_gcc.h **** 
 570:Drivers/CMSIS/Include/cmsis_gcc.h **** /**
 571:Drivers/CMSIS/Include/cmsis_gcc.h ****   \brief   Unsigned Saturate
 572:Drivers/CMSIS/Include/cmsis_gcc.h ****   \details Saturates an unsigned value.
 573:Drivers/CMSIS/Include/cmsis_gcc.h ****   \param [in]  ARG1  Value to be saturated
 574:Drivers/CMSIS/Include/cmsis_gcc.h ****   \param [in]  ARG2  Bit position to saturate to (0..31)
 575:Drivers/CMSIS/Include/cmsis_gcc.h ****   \return             Saturated value
 576:Drivers/CMSIS/Include/cmsis_gcc.h ****  */
 577:Drivers/CMSIS/Include/cmsis_gcc.h **** #define __USAT(ARG1, ARG2) \
 578:Drivers/CMSIS/Include/cmsis_gcc.h **** __extension__ \
 579:Drivers/CMSIS/Include/cmsis_gcc.h **** ({                          \
 580:Drivers/CMSIS/Include/cmsis_gcc.h ****   uint32_t __RES, __ARG1 = (ARG1); \
 581:Drivers/CMSIS/Include/cmsis_gcc.h ****   __ASM volatile ("usat %0, %1, %2" : "=r" (__RES) :  "I" (ARG2), "r" (__ARG1) : "cc" ); \
 582:Drivers/CMSIS/Include/cmsis_gcc.h ****   __RES; \
 583:Drivers/CMSIS/Include/cmsis_gcc.h ****  })
 584:Drivers/CMSIS/Include/cmsis_gcc.h **** 
 585:Drivers/CMSIS/Include/cmsis_gcc.h **** 
 586:Drivers/CMSIS/Include/cmsis_gcc.h **** /**
 587:Drivers/CMSIS/Include/cmsis_gcc.h ****   \brief   Rotate Right with Extend (32 bit)
 588:Drivers/CMSIS/Include/cmsis_gcc.h ****   \details Moves each bit of a bitstring right by one bit.
 589:Drivers/CMSIS/Include/cmsis_gcc.h ****            The carry input is shifted in at the left end of the bitstring.
 590:Drivers/CMSIS/Include/cmsis_gcc.h ****   \param [in]    value  Value to rotate
 591:Drivers/CMSIS/Include/cmsis_gcc.h ****   \return               Rotated value
 592:Drivers/CMSIS/Include/cmsis_gcc.h ****  */
 593:Drivers/CMSIS/Include/cmsis_gcc.h **** __STATIC_FORCEINLINE uint32_t __RRX(uint32_t value)
 594:Drivers/CMSIS/Include/cmsis_gcc.h **** {
 595:Drivers/CMSIS/Include/cmsis_gcc.h ****   uint32_t result;
 596:Drivers/CMSIS/Include/cmsis_gcc.h **** 
 597:Drivers/CMSIS/Include/cmsis_gcc.h ****   __ASM volatile ("rrx %0, %1" : __CMSIS_GCC_OUT_REG (result) : __CMSIS_GCC_USE_REG (value) );
ARM GAS  /tmp/ccVvSPo8.s 			page 52


 598:Drivers/CMSIS/Include/cmsis_gcc.h ****   return(result);
 599:Drivers/CMSIS/Include/cmsis_gcc.h **** }
 600:Drivers/CMSIS/Include/cmsis_gcc.h **** 
 601:Drivers/CMSIS/Include/cmsis_gcc.h **** 
 602:Drivers/CMSIS/Include/cmsis_gcc.h **** /**
 603:Drivers/CMSIS/Include/cmsis_gcc.h ****   \brief   LDRT Unprivileged (8 bit)
 604:Drivers/CMSIS/Include/cmsis_gcc.h ****   \details Executes a Unprivileged LDRT instruction for 8 bit value.
 605:Drivers/CMSIS/Include/cmsis_gcc.h ****   \param [in]    ptr  Pointer to data
 606:Drivers/CMSIS/Include/cmsis_gcc.h ****   \return             value of type uint8_t at (*ptr)
 607:Drivers/CMSIS/Include/cmsis_gcc.h ****  */
 608:Drivers/CMSIS/Include/cmsis_gcc.h **** __STATIC_FORCEINLINE uint8_t __LDRBT(volatile uint8_t *ptr)
 609:Drivers/CMSIS/Include/cmsis_gcc.h **** {
 610:Drivers/CMSIS/Include/cmsis_gcc.h ****     uint32_t result;
 611:Drivers/CMSIS/Include/cmsis_gcc.h **** 
 612:Drivers/CMSIS/Include/cmsis_gcc.h **** #if (__GNUC__ > 4) || (__GNUC__ == 4 && __GNUC_MINOR__ >= 8)
 613:Drivers/CMSIS/Include/cmsis_gcc.h ****    __ASM volatile ("ldrbt %0, %1" : "=r" (result) : "Q" (*ptr) );
 614:Drivers/CMSIS/Include/cmsis_gcc.h **** #else
 615:Drivers/CMSIS/Include/cmsis_gcc.h ****     /* Prior to GCC 4.8, "Q" will be expanded to [rx, #0] which is not
 616:Drivers/CMSIS/Include/cmsis_gcc.h ****        accepted by assembler. So has to use following less efficient pattern.
 617:Drivers/CMSIS/Include/cmsis_gcc.h ****     */
 618:Drivers/CMSIS/Include/cmsis_gcc.h ****    __ASM volatile ("ldrbt %0, [%1]" : "=r" (result) : "r" (ptr) : "memory" );
 619:Drivers/CMSIS/Include/cmsis_gcc.h **** #endif
 620:Drivers/CMSIS/Include/cmsis_gcc.h ****    return ((uint8_t) result);    /* Add explicit type cast here */
 621:Drivers/CMSIS/Include/cmsis_gcc.h **** }
 622:Drivers/CMSIS/Include/cmsis_gcc.h **** 
 623:Drivers/CMSIS/Include/cmsis_gcc.h **** 
 624:Drivers/CMSIS/Include/cmsis_gcc.h **** /**
 625:Drivers/CMSIS/Include/cmsis_gcc.h ****   \brief   LDRT Unprivileged (16 bit)
 626:Drivers/CMSIS/Include/cmsis_gcc.h ****   \details Executes a Unprivileged LDRT instruction for 16 bit values.
 627:Drivers/CMSIS/Include/cmsis_gcc.h ****   \param [in]    ptr  Pointer to data
 628:Drivers/CMSIS/Include/cmsis_gcc.h ****   \return        value of type uint16_t at (*ptr)
 629:Drivers/CMSIS/Include/cmsis_gcc.h ****  */
 630:Drivers/CMSIS/Include/cmsis_gcc.h **** __STATIC_FORCEINLINE uint16_t __LDRHT(volatile uint16_t *ptr)
 631:Drivers/CMSIS/Include/cmsis_gcc.h **** {
 632:Drivers/CMSIS/Include/cmsis_gcc.h ****     uint32_t result;
 633:Drivers/CMSIS/Include/cmsis_gcc.h **** 
 634:Drivers/CMSIS/Include/cmsis_gcc.h **** #if (__GNUC__ > 4) || (__GNUC__ == 4 && __GNUC_MINOR__ >= 8)
 635:Drivers/CMSIS/Include/cmsis_gcc.h ****    __ASM volatile ("ldrht %0, %1" : "=r" (result) : "Q" (*ptr) );
 636:Drivers/CMSIS/Include/cmsis_gcc.h **** #else
 637:Drivers/CMSIS/Include/cmsis_gcc.h ****     /* Prior to GCC 4.8, "Q" will be expanded to [rx, #0] which is not
 638:Drivers/CMSIS/Include/cmsis_gcc.h ****        accepted by assembler. So has to use following less efficient pattern.
 639:Drivers/CMSIS/Include/cmsis_gcc.h ****     */
 640:Drivers/CMSIS/Include/cmsis_gcc.h ****    __ASM volatile ("ldrht %0, [%1]" : "=r" (result) : "r" (ptr) : "memory" );
 641:Drivers/CMSIS/Include/cmsis_gcc.h **** #endif
 642:Drivers/CMSIS/Include/cmsis_gcc.h ****    return ((uint16_t) result);    /* Add explicit type cast here */
 643:Drivers/CMSIS/Include/cmsis_gcc.h **** }
 644:Drivers/CMSIS/Include/cmsis_gcc.h **** 
 645:Drivers/CMSIS/Include/cmsis_gcc.h **** 
 646:Drivers/CMSIS/Include/cmsis_gcc.h **** /**
 647:Drivers/CMSIS/Include/cmsis_gcc.h ****   \brief   LDRT Unprivileged (32 bit)
 648:Drivers/CMSIS/Include/cmsis_gcc.h ****   \details Executes a Unprivileged LDRT instruction for 32 bit values.
 649:Drivers/CMSIS/Include/cmsis_gcc.h ****   \param [in]    ptr  Pointer to data
 650:Drivers/CMSIS/Include/cmsis_gcc.h ****   \return        value of type uint32_t at (*ptr)
 651:Drivers/CMSIS/Include/cmsis_gcc.h ****  */
 652:Drivers/CMSIS/Include/cmsis_gcc.h **** __STATIC_FORCEINLINE uint32_t __LDRT(volatile uint32_t *ptr)
 653:Drivers/CMSIS/Include/cmsis_gcc.h **** {
 654:Drivers/CMSIS/Include/cmsis_gcc.h ****     uint32_t result;
ARM GAS  /tmp/ccVvSPo8.s 			page 53


 655:Drivers/CMSIS/Include/cmsis_gcc.h **** 
 656:Drivers/CMSIS/Include/cmsis_gcc.h ****    __ASM volatile ("ldrt %0, %1" : "=r" (result) : "Q" (*ptr) );
 657:Drivers/CMSIS/Include/cmsis_gcc.h ****    return(result);
 658:Drivers/CMSIS/Include/cmsis_gcc.h **** }
 659:Drivers/CMSIS/Include/cmsis_gcc.h **** 
 660:Drivers/CMSIS/Include/cmsis_gcc.h **** 
 661:Drivers/CMSIS/Include/cmsis_gcc.h **** /**
 662:Drivers/CMSIS/Include/cmsis_gcc.h ****   \brief   STRT Unprivileged (8 bit)
 663:Drivers/CMSIS/Include/cmsis_gcc.h ****   \details Executes a Unprivileged STRT instruction for 8 bit values.
 664:Drivers/CMSIS/Include/cmsis_gcc.h ****   \param [in]  value  Value to store
 665:Drivers/CMSIS/Include/cmsis_gcc.h ****   \param [in]    ptr  Pointer to location
 666:Drivers/CMSIS/Include/cmsis_gcc.h ****  */
 667:Drivers/CMSIS/Include/cmsis_gcc.h **** __STATIC_FORCEINLINE void __STRBT(uint8_t value, volatile uint8_t *ptr)
 668:Drivers/CMSIS/Include/cmsis_gcc.h **** {
 669:Drivers/CMSIS/Include/cmsis_gcc.h ****    __ASM volatile ("strbt %1, %0" : "=Q" (*ptr) : "r" ((uint32_t)value) );
 670:Drivers/CMSIS/Include/cmsis_gcc.h **** }
 671:Drivers/CMSIS/Include/cmsis_gcc.h **** 
 672:Drivers/CMSIS/Include/cmsis_gcc.h **** 
 673:Drivers/CMSIS/Include/cmsis_gcc.h **** /**
 674:Drivers/CMSIS/Include/cmsis_gcc.h ****   \brief   STRT Unprivileged (16 bit)
 675:Drivers/CMSIS/Include/cmsis_gcc.h ****   \details Executes a Unprivileged STRT instruction for 16 bit values.
 676:Drivers/CMSIS/Include/cmsis_gcc.h ****   \param [in]  value  Value to store
 677:Drivers/CMSIS/Include/cmsis_gcc.h ****   \param [in]    ptr  Pointer to location
 678:Drivers/CMSIS/Include/cmsis_gcc.h ****  */
 679:Drivers/CMSIS/Include/cmsis_gcc.h **** __STATIC_FORCEINLINE void __STRHT(uint16_t value, volatile uint16_t *ptr)
 680:Drivers/CMSIS/Include/cmsis_gcc.h **** {
 681:Drivers/CMSIS/Include/cmsis_gcc.h ****    __ASM volatile ("strht %1, %0" : "=Q" (*ptr) : "r" ((uint32_t)value) );
 682:Drivers/CMSIS/Include/cmsis_gcc.h **** }
 683:Drivers/CMSIS/Include/cmsis_gcc.h **** 
 684:Drivers/CMSIS/Include/cmsis_gcc.h **** 
 685:Drivers/CMSIS/Include/cmsis_gcc.h **** /**
 686:Drivers/CMSIS/Include/cmsis_gcc.h ****   \brief   STRT Unprivileged (32 bit)
 687:Drivers/CMSIS/Include/cmsis_gcc.h ****   \details Executes a Unprivileged STRT instruction for 32 bit values.
 688:Drivers/CMSIS/Include/cmsis_gcc.h ****   \param [in]  value  Value to store
 689:Drivers/CMSIS/Include/cmsis_gcc.h ****   \param [in]    ptr  Pointer to location
 690:Drivers/CMSIS/Include/cmsis_gcc.h ****  */
 691:Drivers/CMSIS/Include/cmsis_gcc.h **** __STATIC_FORCEINLINE void __STRT(uint32_t value, volatile uint32_t *ptr)
 692:Drivers/CMSIS/Include/cmsis_gcc.h **** {
 693:Drivers/CMSIS/Include/cmsis_gcc.h ****    __ASM volatile ("strt %1, %0" : "=Q" (*ptr) : "r" (value) );
 694:Drivers/CMSIS/Include/cmsis_gcc.h **** }
 695:Drivers/CMSIS/Include/cmsis_gcc.h **** 
 696:Drivers/CMSIS/Include/cmsis_gcc.h **** #else  /* ((defined (__ARM_ARCH_7M__      ) && (__ARM_ARCH_7M__      == 1)) || \
 697:Drivers/CMSIS/Include/cmsis_gcc.h ****            (defined (__ARM_ARCH_7EM__     ) && (__ARM_ARCH_7EM__     == 1)) || \
 698:Drivers/CMSIS/Include/cmsis_gcc.h ****            (defined (__ARM_ARCH_8M_MAIN__ ) && (__ARM_ARCH_8M_MAIN__ == 1))    ) */
 699:Drivers/CMSIS/Include/cmsis_gcc.h **** 
 700:Drivers/CMSIS/Include/cmsis_gcc.h **** /**
 701:Drivers/CMSIS/Include/cmsis_gcc.h ****   \brief   Signed Saturate
 702:Drivers/CMSIS/Include/cmsis_gcc.h ****   \details Saturates a signed value.
 703:Drivers/CMSIS/Include/cmsis_gcc.h ****   \param [in]  value  Value to be saturated
 704:Drivers/CMSIS/Include/cmsis_gcc.h ****   \param [in]    sat  Bit position to saturate to (1..32)
 705:Drivers/CMSIS/Include/cmsis_gcc.h ****   \return             Saturated value
 706:Drivers/CMSIS/Include/cmsis_gcc.h ****  */
 707:Drivers/CMSIS/Include/cmsis_gcc.h **** __STATIC_FORCEINLINE int32_t __SSAT(int32_t val, uint32_t sat)
 708:Drivers/CMSIS/Include/cmsis_gcc.h **** {
 709:Drivers/CMSIS/Include/cmsis_gcc.h ****   if ((sat >= 1U) && (sat <= 32U))
 710:Drivers/CMSIS/Include/cmsis_gcc.h ****   {
 711:Drivers/CMSIS/Include/cmsis_gcc.h ****     const int32_t max = (int32_t)((1U << (sat - 1U)) - 1U);
ARM GAS  /tmp/ccVvSPo8.s 			page 54


 712:Drivers/CMSIS/Include/cmsis_gcc.h ****     const int32_t min = -1 - max ;
 713:Drivers/CMSIS/Include/cmsis_gcc.h ****     if (val > max)
 714:Drivers/CMSIS/Include/cmsis_gcc.h ****     {
 715:Drivers/CMSIS/Include/cmsis_gcc.h ****       return max;
 716:Drivers/CMSIS/Include/cmsis_gcc.h ****     }
 717:Drivers/CMSIS/Include/cmsis_gcc.h ****     else if (val < min)
 718:Drivers/CMSIS/Include/cmsis_gcc.h ****     {
 719:Drivers/CMSIS/Include/cmsis_gcc.h ****       return min;
 720:Drivers/CMSIS/Include/cmsis_gcc.h ****     }
 721:Drivers/CMSIS/Include/cmsis_gcc.h ****   }
 722:Drivers/CMSIS/Include/cmsis_gcc.h ****   return val;
 723:Drivers/CMSIS/Include/cmsis_gcc.h **** }
 724:Drivers/CMSIS/Include/cmsis_gcc.h **** 
 725:Drivers/CMSIS/Include/cmsis_gcc.h **** /**
 726:Drivers/CMSIS/Include/cmsis_gcc.h ****   \brief   Unsigned Saturate
 727:Drivers/CMSIS/Include/cmsis_gcc.h ****   \details Saturates an unsigned value.
 728:Drivers/CMSIS/Include/cmsis_gcc.h ****   \param [in]  value  Value to be saturated
 729:Drivers/CMSIS/Include/cmsis_gcc.h ****   \param [in]    sat  Bit position to saturate to (0..31)
 730:Drivers/CMSIS/Include/cmsis_gcc.h ****   \return             Saturated value
 731:Drivers/CMSIS/Include/cmsis_gcc.h ****  */
 732:Drivers/CMSIS/Include/cmsis_gcc.h **** __STATIC_FORCEINLINE uint32_t __USAT(int32_t val, uint32_t sat)
 733:Drivers/CMSIS/Include/cmsis_gcc.h **** {
 734:Drivers/CMSIS/Include/cmsis_gcc.h ****   if (sat <= 31U)
 735:Drivers/CMSIS/Include/cmsis_gcc.h ****   {
 736:Drivers/CMSIS/Include/cmsis_gcc.h ****     const uint32_t max = ((1U << sat) - 1U);
 737:Drivers/CMSIS/Include/cmsis_gcc.h ****     if (val > (int32_t)max)
 738:Drivers/CMSIS/Include/cmsis_gcc.h ****     {
 739:Drivers/CMSIS/Include/cmsis_gcc.h ****       return max;
 740:Drivers/CMSIS/Include/cmsis_gcc.h ****     }
 741:Drivers/CMSIS/Include/cmsis_gcc.h ****     else if (val < 0)
 742:Drivers/CMSIS/Include/cmsis_gcc.h ****     {
 743:Drivers/CMSIS/Include/cmsis_gcc.h ****       return 0U;
 744:Drivers/CMSIS/Include/cmsis_gcc.h ****     }
 745:Drivers/CMSIS/Include/cmsis_gcc.h ****   }
 746:Drivers/CMSIS/Include/cmsis_gcc.h ****   return (uint32_t)val;
 747:Drivers/CMSIS/Include/cmsis_gcc.h **** }
 748:Drivers/CMSIS/Include/cmsis_gcc.h **** 
 749:Drivers/CMSIS/Include/cmsis_gcc.h **** #endif /* ((defined (__ARM_ARCH_7M__      ) && (__ARM_ARCH_7M__      == 1)) || \
 750:Drivers/CMSIS/Include/cmsis_gcc.h ****            (defined (__ARM_ARCH_7EM__     ) && (__ARM_ARCH_7EM__     == 1)) || \
 751:Drivers/CMSIS/Include/cmsis_gcc.h ****            (defined (__ARM_ARCH_8M_MAIN__ ) && (__ARM_ARCH_8M_MAIN__ == 1))    ) */
 752:Drivers/CMSIS/Include/cmsis_gcc.h **** 
 753:Drivers/CMSIS/Include/cmsis_gcc.h **** 
 754:Drivers/CMSIS/Include/cmsis_gcc.h **** #if ((defined (__ARM_ARCH_8M_MAIN__ ) && (__ARM_ARCH_8M_MAIN__ == 1)) || \
 755:Drivers/CMSIS/Include/cmsis_gcc.h ****      (defined (__ARM_ARCH_8M_BASE__ ) && (__ARM_ARCH_8M_BASE__ == 1))    )
 756:Drivers/CMSIS/Include/cmsis_gcc.h **** /**
 757:Drivers/CMSIS/Include/cmsis_gcc.h ****   \brief   Load-Acquire (8 bit)
 758:Drivers/CMSIS/Include/cmsis_gcc.h ****   \details Executes a LDAB instruction for 8 bit value.
 759:Drivers/CMSIS/Include/cmsis_gcc.h ****   \param [in]    ptr  Pointer to data
 760:Drivers/CMSIS/Include/cmsis_gcc.h ****   \return             value of type uint8_t at (*ptr)
 761:Drivers/CMSIS/Include/cmsis_gcc.h ****  */
 762:Drivers/CMSIS/Include/cmsis_gcc.h **** __STATIC_FORCEINLINE uint8_t __LDAB(volatile uint8_t *ptr)
 763:Drivers/CMSIS/Include/cmsis_gcc.h **** {
 764:Drivers/CMSIS/Include/cmsis_gcc.h ****     uint32_t result;
 765:Drivers/CMSIS/Include/cmsis_gcc.h **** 
 766:Drivers/CMSIS/Include/cmsis_gcc.h ****    __ASM volatile ("ldab %0, %1" : "=r" (result) : "Q" (*ptr) : "memory" );
 767:Drivers/CMSIS/Include/cmsis_gcc.h ****    return ((uint8_t) result);
 768:Drivers/CMSIS/Include/cmsis_gcc.h **** }
ARM GAS  /tmp/ccVvSPo8.s 			page 55


 769:Drivers/CMSIS/Include/cmsis_gcc.h **** 
 770:Drivers/CMSIS/Include/cmsis_gcc.h **** 
 771:Drivers/CMSIS/Include/cmsis_gcc.h **** /**
 772:Drivers/CMSIS/Include/cmsis_gcc.h ****   \brief   Load-Acquire (16 bit)
 773:Drivers/CMSIS/Include/cmsis_gcc.h ****   \details Executes a LDAH instruction for 16 bit values.
 774:Drivers/CMSIS/Include/cmsis_gcc.h ****   \param [in]    ptr  Pointer to data
 775:Drivers/CMSIS/Include/cmsis_gcc.h ****   \return        value of type uint16_t at (*ptr)
 776:Drivers/CMSIS/Include/cmsis_gcc.h ****  */
 777:Drivers/CMSIS/Include/cmsis_gcc.h **** __STATIC_FORCEINLINE uint16_t __LDAH(volatile uint16_t *ptr)
 778:Drivers/CMSIS/Include/cmsis_gcc.h **** {
 779:Drivers/CMSIS/Include/cmsis_gcc.h ****     uint32_t result;
 780:Drivers/CMSIS/Include/cmsis_gcc.h **** 
 781:Drivers/CMSIS/Include/cmsis_gcc.h ****    __ASM volatile ("ldah %0, %1" : "=r" (result) : "Q" (*ptr) : "memory" );
 782:Drivers/CMSIS/Include/cmsis_gcc.h ****    return ((uint16_t) result);
 783:Drivers/CMSIS/Include/cmsis_gcc.h **** }
 784:Drivers/CMSIS/Include/cmsis_gcc.h **** 
 785:Drivers/CMSIS/Include/cmsis_gcc.h **** 
 786:Drivers/CMSIS/Include/cmsis_gcc.h **** /**
 787:Drivers/CMSIS/Include/cmsis_gcc.h ****   \brief   Load-Acquire (32 bit)
 788:Drivers/CMSIS/Include/cmsis_gcc.h ****   \details Executes a LDA instruction for 32 bit values.
 789:Drivers/CMSIS/Include/cmsis_gcc.h ****   \param [in]    ptr  Pointer to data
 790:Drivers/CMSIS/Include/cmsis_gcc.h ****   \return        value of type uint32_t at (*ptr)
 791:Drivers/CMSIS/Include/cmsis_gcc.h ****  */
 792:Drivers/CMSIS/Include/cmsis_gcc.h **** __STATIC_FORCEINLINE uint32_t __LDA(volatile uint32_t *ptr)
 793:Drivers/CMSIS/Include/cmsis_gcc.h **** {
 794:Drivers/CMSIS/Include/cmsis_gcc.h ****     uint32_t result;
 795:Drivers/CMSIS/Include/cmsis_gcc.h **** 
 796:Drivers/CMSIS/Include/cmsis_gcc.h ****    __ASM volatile ("lda %0, %1" : "=r" (result) : "Q" (*ptr) : "memory" );
 797:Drivers/CMSIS/Include/cmsis_gcc.h ****    return(result);
 798:Drivers/CMSIS/Include/cmsis_gcc.h **** }
 799:Drivers/CMSIS/Include/cmsis_gcc.h **** 
 800:Drivers/CMSIS/Include/cmsis_gcc.h **** 
 801:Drivers/CMSIS/Include/cmsis_gcc.h **** /**
 802:Drivers/CMSIS/Include/cmsis_gcc.h ****   \brief   Store-Release (8 bit)
 803:Drivers/CMSIS/Include/cmsis_gcc.h ****   \details Executes a STLB instruction for 8 bit values.
 804:Drivers/CMSIS/Include/cmsis_gcc.h ****   \param [in]  value  Value to store
 805:Drivers/CMSIS/Include/cmsis_gcc.h ****   \param [in]    ptr  Pointer to location
 806:Drivers/CMSIS/Include/cmsis_gcc.h ****  */
 807:Drivers/CMSIS/Include/cmsis_gcc.h **** __STATIC_FORCEINLINE void __STLB(uint8_t value, volatile uint8_t *ptr)
 808:Drivers/CMSIS/Include/cmsis_gcc.h **** {
 809:Drivers/CMSIS/Include/cmsis_gcc.h ****    __ASM volatile ("stlb %1, %0" : "=Q" (*ptr) : "r" ((uint32_t)value) : "memory" );
 810:Drivers/CMSIS/Include/cmsis_gcc.h **** }
 811:Drivers/CMSIS/Include/cmsis_gcc.h **** 
 812:Drivers/CMSIS/Include/cmsis_gcc.h **** 
 813:Drivers/CMSIS/Include/cmsis_gcc.h **** /**
 814:Drivers/CMSIS/Include/cmsis_gcc.h ****   \brief   Store-Release (16 bit)
 815:Drivers/CMSIS/Include/cmsis_gcc.h ****   \details Executes a STLH instruction for 16 bit values.
 816:Drivers/CMSIS/Include/cmsis_gcc.h ****   \param [in]  value  Value to store
 817:Drivers/CMSIS/Include/cmsis_gcc.h ****   \param [in]    ptr  Pointer to location
 818:Drivers/CMSIS/Include/cmsis_gcc.h ****  */
 819:Drivers/CMSIS/Include/cmsis_gcc.h **** __STATIC_FORCEINLINE void __STLH(uint16_t value, volatile uint16_t *ptr)
 820:Drivers/CMSIS/Include/cmsis_gcc.h **** {
 821:Drivers/CMSIS/Include/cmsis_gcc.h ****    __ASM volatile ("stlh %1, %0" : "=Q" (*ptr) : "r" ((uint32_t)value) : "memory" );
 822:Drivers/CMSIS/Include/cmsis_gcc.h **** }
 823:Drivers/CMSIS/Include/cmsis_gcc.h **** 
 824:Drivers/CMSIS/Include/cmsis_gcc.h **** 
 825:Drivers/CMSIS/Include/cmsis_gcc.h **** /**
ARM GAS  /tmp/ccVvSPo8.s 			page 56


 826:Drivers/CMSIS/Include/cmsis_gcc.h ****   \brief   Store-Release (32 bit)
 827:Drivers/CMSIS/Include/cmsis_gcc.h ****   \details Executes a STL instruction for 32 bit values.
 828:Drivers/CMSIS/Include/cmsis_gcc.h ****   \param [in]  value  Value to store
 829:Drivers/CMSIS/Include/cmsis_gcc.h ****   \param [in]    ptr  Pointer to location
 830:Drivers/CMSIS/Include/cmsis_gcc.h ****  */
 831:Drivers/CMSIS/Include/cmsis_gcc.h **** __STATIC_FORCEINLINE void __STL(uint32_t value, volatile uint32_t *ptr)
 832:Drivers/CMSIS/Include/cmsis_gcc.h **** {
 833:Drivers/CMSIS/Include/cmsis_gcc.h ****    __ASM volatile ("stl %1, %0" : "=Q" (*ptr) : "r" ((uint32_t)value) : "memory" );
 834:Drivers/CMSIS/Include/cmsis_gcc.h **** }
 835:Drivers/CMSIS/Include/cmsis_gcc.h **** 
 836:Drivers/CMSIS/Include/cmsis_gcc.h **** 
 837:Drivers/CMSIS/Include/cmsis_gcc.h **** /**
 838:Drivers/CMSIS/Include/cmsis_gcc.h ****   \brief   Load-Acquire Exclusive (8 bit)
 839:Drivers/CMSIS/Include/cmsis_gcc.h ****   \details Executes a LDAB exclusive instruction for 8 bit value.
 840:Drivers/CMSIS/Include/cmsis_gcc.h ****   \param [in]    ptr  Pointer to data
 841:Drivers/CMSIS/Include/cmsis_gcc.h ****   \return             value of type uint8_t at (*ptr)
 842:Drivers/CMSIS/Include/cmsis_gcc.h ****  */
 843:Drivers/CMSIS/Include/cmsis_gcc.h **** __STATIC_FORCEINLINE uint8_t __LDAEXB(volatile uint8_t *ptr)
 844:Drivers/CMSIS/Include/cmsis_gcc.h **** {
 845:Drivers/CMSIS/Include/cmsis_gcc.h ****     uint32_t result;
 846:Drivers/CMSIS/Include/cmsis_gcc.h **** 
 847:Drivers/CMSIS/Include/cmsis_gcc.h ****    __ASM volatile ("ldaexb %0, %1" : "=r" (result) : "Q" (*ptr) : "memory" );
 848:Drivers/CMSIS/Include/cmsis_gcc.h ****    return ((uint8_t) result);
 849:Drivers/CMSIS/Include/cmsis_gcc.h **** }
 850:Drivers/CMSIS/Include/cmsis_gcc.h **** 
 851:Drivers/CMSIS/Include/cmsis_gcc.h **** 
 852:Drivers/CMSIS/Include/cmsis_gcc.h **** /**
 853:Drivers/CMSIS/Include/cmsis_gcc.h ****   \brief   Load-Acquire Exclusive (16 bit)
 854:Drivers/CMSIS/Include/cmsis_gcc.h ****   \details Executes a LDAH exclusive instruction for 16 bit values.
 855:Drivers/CMSIS/Include/cmsis_gcc.h ****   \param [in]    ptr  Pointer to data
 856:Drivers/CMSIS/Include/cmsis_gcc.h ****   \return        value of type uint16_t at (*ptr)
 857:Drivers/CMSIS/Include/cmsis_gcc.h ****  */
 858:Drivers/CMSIS/Include/cmsis_gcc.h **** __STATIC_FORCEINLINE uint16_t __LDAEXH(volatile uint16_t *ptr)
 859:Drivers/CMSIS/Include/cmsis_gcc.h **** {
 860:Drivers/CMSIS/Include/cmsis_gcc.h ****     uint32_t result;
 861:Drivers/CMSIS/Include/cmsis_gcc.h **** 
 862:Drivers/CMSIS/Include/cmsis_gcc.h ****    __ASM volatile ("ldaexh %0, %1" : "=r" (result) : "Q" (*ptr) : "memory" );
 863:Drivers/CMSIS/Include/cmsis_gcc.h ****    return ((uint16_t) result);
 864:Drivers/CMSIS/Include/cmsis_gcc.h **** }
 865:Drivers/CMSIS/Include/cmsis_gcc.h **** 
 866:Drivers/CMSIS/Include/cmsis_gcc.h **** 
 867:Drivers/CMSIS/Include/cmsis_gcc.h **** /**
 868:Drivers/CMSIS/Include/cmsis_gcc.h ****   \brief   Load-Acquire Exclusive (32 bit)
 869:Drivers/CMSIS/Include/cmsis_gcc.h ****   \details Executes a LDA exclusive instruction for 32 bit values.
 870:Drivers/CMSIS/Include/cmsis_gcc.h ****   \param [in]    ptr  Pointer to data
 871:Drivers/CMSIS/Include/cmsis_gcc.h ****   \return        value of type uint32_t at (*ptr)
 872:Drivers/CMSIS/Include/cmsis_gcc.h ****  */
 873:Drivers/CMSIS/Include/cmsis_gcc.h **** __STATIC_FORCEINLINE uint32_t __LDAEX(volatile uint32_t *ptr)
 874:Drivers/CMSIS/Include/cmsis_gcc.h **** {
 875:Drivers/CMSIS/Include/cmsis_gcc.h ****     uint32_t result;
 876:Drivers/CMSIS/Include/cmsis_gcc.h **** 
 877:Drivers/CMSIS/Include/cmsis_gcc.h ****    __ASM volatile ("ldaex %0, %1" : "=r" (result) : "Q" (*ptr) : "memory" );
 878:Drivers/CMSIS/Include/cmsis_gcc.h ****    return(result);
 879:Drivers/CMSIS/Include/cmsis_gcc.h **** }
 880:Drivers/CMSIS/Include/cmsis_gcc.h **** 
 881:Drivers/CMSIS/Include/cmsis_gcc.h **** 
 882:Drivers/CMSIS/Include/cmsis_gcc.h **** /**
ARM GAS  /tmp/ccVvSPo8.s 			page 57


 883:Drivers/CMSIS/Include/cmsis_gcc.h ****   \brief   Store-Release Exclusive (8 bit)
 884:Drivers/CMSIS/Include/cmsis_gcc.h ****   \details Executes a STLB exclusive instruction for 8 bit values.
 885:Drivers/CMSIS/Include/cmsis_gcc.h ****   \param [in]  value  Value to store
 886:Drivers/CMSIS/Include/cmsis_gcc.h ****   \param [in]    ptr  Pointer to location
 887:Drivers/CMSIS/Include/cmsis_gcc.h ****   \return          0  Function succeeded
 888:Drivers/CMSIS/Include/cmsis_gcc.h ****   \return          1  Function failed
 889:Drivers/CMSIS/Include/cmsis_gcc.h ****  */
 890:Drivers/CMSIS/Include/cmsis_gcc.h **** __STATIC_FORCEINLINE uint32_t __STLEXB(uint8_t value, volatile uint8_t *ptr)
 891:Drivers/CMSIS/Include/cmsis_gcc.h **** {
 892:Drivers/CMSIS/Include/cmsis_gcc.h ****    uint32_t result;
 893:Drivers/CMSIS/Include/cmsis_gcc.h **** 
 894:Drivers/CMSIS/Include/cmsis_gcc.h ****    __ASM volatile ("stlexb %0, %2, %1" : "=&r" (result), "=Q" (*ptr) : "r" ((uint32_t)value) : "mem
 895:Drivers/CMSIS/Include/cmsis_gcc.h ****    return(result);
 896:Drivers/CMSIS/Include/cmsis_gcc.h **** }
 897:Drivers/CMSIS/Include/cmsis_gcc.h **** 
 898:Drivers/CMSIS/Include/cmsis_gcc.h **** 
 899:Drivers/CMSIS/Include/cmsis_gcc.h **** /**
 900:Drivers/CMSIS/Include/cmsis_gcc.h ****   \brief   Store-Release Exclusive (16 bit)
 901:Drivers/CMSIS/Include/cmsis_gcc.h ****   \details Executes a STLH exclusive instruction for 16 bit values.
 902:Drivers/CMSIS/Include/cmsis_gcc.h ****   \param [in]  value  Value to store
 903:Drivers/CMSIS/Include/cmsis_gcc.h ****   \param [in]    ptr  Pointer to location
 904:Drivers/CMSIS/Include/cmsis_gcc.h ****   \return          0  Function succeeded
 905:Drivers/CMSIS/Include/cmsis_gcc.h ****   \return          1  Function failed
 906:Drivers/CMSIS/Include/cmsis_gcc.h ****  */
 907:Drivers/CMSIS/Include/cmsis_gcc.h **** __STATIC_FORCEINLINE uint32_t __STLEXH(uint16_t value, volatile uint16_t *ptr)
 908:Drivers/CMSIS/Include/cmsis_gcc.h **** {
 909:Drivers/CMSIS/Include/cmsis_gcc.h ****    uint32_t result;
 910:Drivers/CMSIS/Include/cmsis_gcc.h **** 
 911:Drivers/CMSIS/Include/cmsis_gcc.h ****    __ASM volatile ("stlexh %0, %2, %1" : "=&r" (result), "=Q" (*ptr) : "r" ((uint32_t)value) : "mem
 912:Drivers/CMSIS/Include/cmsis_gcc.h ****    return(result);
 913:Drivers/CMSIS/Include/cmsis_gcc.h **** }
 914:Drivers/CMSIS/Include/cmsis_gcc.h **** 
 915:Drivers/CMSIS/Include/cmsis_gcc.h **** 
 916:Drivers/CMSIS/Include/cmsis_gcc.h **** /**
 917:Drivers/CMSIS/Include/cmsis_gcc.h ****   \brief   Store-Release Exclusive (32 bit)
 918:Drivers/CMSIS/Include/cmsis_gcc.h ****   \details Executes a STL exclusive instruction for 32 bit values.
 919:Drivers/CMSIS/Include/cmsis_gcc.h ****   \param [in]  value  Value to store
 920:Drivers/CMSIS/Include/cmsis_gcc.h ****   \param [in]    ptr  Pointer to location
 921:Drivers/CMSIS/Include/cmsis_gcc.h ****   \return          0  Function succeeded
 922:Drivers/CMSIS/Include/cmsis_gcc.h ****   \return          1  Function failed
 923:Drivers/CMSIS/Include/cmsis_gcc.h ****  */
 924:Drivers/CMSIS/Include/cmsis_gcc.h **** __STATIC_FORCEINLINE uint32_t __STLEX(uint32_t value, volatile uint32_t *ptr)
 925:Drivers/CMSIS/Include/cmsis_gcc.h **** {
 926:Drivers/CMSIS/Include/cmsis_gcc.h ****    uint32_t result;
 927:Drivers/CMSIS/Include/cmsis_gcc.h **** 
 928:Drivers/CMSIS/Include/cmsis_gcc.h ****    __ASM volatile ("stlex %0, %2, %1" : "=&r" (result), "=Q" (*ptr) : "r" ((uint32_t)value) : "memo
 929:Drivers/CMSIS/Include/cmsis_gcc.h ****    return(result);
 930:Drivers/CMSIS/Include/cmsis_gcc.h **** }
 931:Drivers/CMSIS/Include/cmsis_gcc.h **** 
 932:Drivers/CMSIS/Include/cmsis_gcc.h **** #endif /* ((defined (__ARM_ARCH_8M_MAIN__ ) && (__ARM_ARCH_8M_MAIN__ == 1)) || \
 933:Drivers/CMSIS/Include/cmsis_gcc.h ****            (defined (__ARM_ARCH_8M_BASE__ ) && (__ARM_ARCH_8M_BASE__ == 1))    ) */
 934:Drivers/CMSIS/Include/cmsis_gcc.h **** 
 935:Drivers/CMSIS/Include/cmsis_gcc.h **** /*@}*/ /* end of group CMSIS_Core_InstructionInterface */
 936:Drivers/CMSIS/Include/cmsis_gcc.h **** 
 937:Drivers/CMSIS/Include/cmsis_gcc.h **** 
 938:Drivers/CMSIS/Include/cmsis_gcc.h **** /* ###########################  Core Function Access  ########################### */
 939:Drivers/CMSIS/Include/cmsis_gcc.h **** /** \ingroup  CMSIS_Core_FunctionInterface
ARM GAS  /tmp/ccVvSPo8.s 			page 58


 940:Drivers/CMSIS/Include/cmsis_gcc.h ****     \defgroup CMSIS_Core_RegAccFunctions CMSIS Core Register Access Functions
 941:Drivers/CMSIS/Include/cmsis_gcc.h ****   @{
 942:Drivers/CMSIS/Include/cmsis_gcc.h ****  */
 943:Drivers/CMSIS/Include/cmsis_gcc.h **** 
 944:Drivers/CMSIS/Include/cmsis_gcc.h **** /**
 945:Drivers/CMSIS/Include/cmsis_gcc.h ****   \brief   Enable IRQ Interrupts
 946:Drivers/CMSIS/Include/cmsis_gcc.h ****   \details Enables IRQ interrupts by clearing special-purpose register PRIMASK.
 947:Drivers/CMSIS/Include/cmsis_gcc.h ****            Can only be executed in Privileged modes.
 948:Drivers/CMSIS/Include/cmsis_gcc.h ****  */
 949:Drivers/CMSIS/Include/cmsis_gcc.h **** __STATIC_FORCEINLINE void __enable_irq(void)
 950:Drivers/CMSIS/Include/cmsis_gcc.h **** {
 951:Drivers/CMSIS/Include/cmsis_gcc.h ****   __ASM volatile ("cpsie i" : : : "memory");
 952:Drivers/CMSIS/Include/cmsis_gcc.h **** }
 953:Drivers/CMSIS/Include/cmsis_gcc.h **** 
 954:Drivers/CMSIS/Include/cmsis_gcc.h **** 
 955:Drivers/CMSIS/Include/cmsis_gcc.h **** /**
 956:Drivers/CMSIS/Include/cmsis_gcc.h ****   \brief   Disable IRQ Interrupts
 957:Drivers/CMSIS/Include/cmsis_gcc.h ****   \details Disables IRQ interrupts by setting special-purpose register PRIMASK.
 958:Drivers/CMSIS/Include/cmsis_gcc.h ****            Can only be executed in Privileged modes.
 959:Drivers/CMSIS/Include/cmsis_gcc.h ****  */
 960:Drivers/CMSIS/Include/cmsis_gcc.h **** __STATIC_FORCEINLINE void __disable_irq(void)
 1341              		.loc 2 960 27 view .LVU370
 1342              	.LBB20:
 961:Drivers/CMSIS/Include/cmsis_gcc.h **** {
 962:Drivers/CMSIS/Include/cmsis_gcc.h ****   __ASM volatile ("cpsid i" : : : "memory");
 1343              		.loc 2 962 3 view .LVU371
 1344              		.syntax unified
 1345              	@ 962 "Drivers/CMSIS/Include/cmsis_gcc.h" 1
 1346 0000 72B6     		cpsid i
 1347              	@ 0 "" 2
 1348              		.thumb
 1349              		.syntax unified
 1350              	.L78:
 1351              	.LBE20:
 1352              	.LBE19:
 789:Core/Src/main.c ****   while (1)
 1353              		.loc 1 789 3 discriminator 1 view .LVU372
 790:Core/Src/main.c ****   {
 791:Core/Src/main.c ****   }
 1354              		.loc 1 791 3 discriminator 1 view .LVU373
 789:Core/Src/main.c ****   while (1)
 1355              		.loc 1 789 9 discriminator 1 view .LVU374
 1356 0002 FEE7     		b	.L78
 1357              		.cfi_endproc
 1358              	.LFE165:
 1360              		.section	.text.MX_USART3_UART_Init,"ax",%progbits
 1361              		.align	1
 1362              		.syntax unified
 1363              		.thumb
 1364              		.thumb_func
 1365              		.fpu fpv5-d16
 1367              	MX_USART3_UART_Init:
 1368              	.LFB159:
 537:Core/Src/main.c **** 
 1369              		.loc 1 537 1 view -0
 1370              		.cfi_startproc
 1371              		@ args = 0, pretend = 0, frame = 0
ARM GAS  /tmp/ccVvSPo8.s 			page 59


 1372              		@ frame_needed = 0, uses_anonymous_args = 0
 1373 0000 08B5     		push	{r3, lr}
 1374              	.LCFI29:
 1375              		.cfi_def_cfa_offset 8
 1376              		.cfi_offset 3, -8
 1377              		.cfi_offset 14, -4
 546:Core/Src/main.c ****   huart3.Init.BaudRate = 115200;
 1378              		.loc 1 546 3 view .LVU376
 546:Core/Src/main.c ****   huart3.Init.BaudRate = 115200;
 1379              		.loc 1 546 19 is_stmt 0 view .LVU377
 1380 0002 1948     		ldr	r0, .L89
 1381 0004 194B     		ldr	r3, .L89+4
 1382 0006 0360     		str	r3, [r0]
 547:Core/Src/main.c ****   huart3.Init.WordLength = UART_WORDLENGTH_8B;
 1383              		.loc 1 547 3 is_stmt 1 view .LVU378
 547:Core/Src/main.c ****   huart3.Init.WordLength = UART_WORDLENGTH_8B;
 1384              		.loc 1 547 24 is_stmt 0 view .LVU379
 1385 0008 4FF4E133 		mov	r3, #115200
 1386 000c 4360     		str	r3, [r0, #4]
 548:Core/Src/main.c ****   huart3.Init.StopBits = UART_STOPBITS_1;
 1387              		.loc 1 548 3 is_stmt 1 view .LVU380
 548:Core/Src/main.c ****   huart3.Init.StopBits = UART_STOPBITS_1;
 1388              		.loc 1 548 26 is_stmt 0 view .LVU381
 1389 000e 0023     		movs	r3, #0
 1390 0010 8360     		str	r3, [r0, #8]
 549:Core/Src/main.c ****   huart3.Init.Parity = UART_PARITY_NONE;
 1391              		.loc 1 549 3 is_stmt 1 view .LVU382
 549:Core/Src/main.c ****   huart3.Init.Parity = UART_PARITY_NONE;
 1392              		.loc 1 549 24 is_stmt 0 view .LVU383
 1393 0012 C360     		str	r3, [r0, #12]
 550:Core/Src/main.c ****   huart3.Init.Mode = UART_MODE_TX_RX;
 1394              		.loc 1 550 3 is_stmt 1 view .LVU384
 550:Core/Src/main.c ****   huart3.Init.Mode = UART_MODE_TX_RX;
 1395              		.loc 1 550 22 is_stmt 0 view .LVU385
 1396 0014 0361     		str	r3, [r0, #16]
 551:Core/Src/main.c ****   huart3.Init.HwFlowCtl = UART_HWCONTROL_NONE;
 1397              		.loc 1 551 3 is_stmt 1 view .LVU386
 551:Core/Src/main.c ****   huart3.Init.HwFlowCtl = UART_HWCONTROL_NONE;
 1398              		.loc 1 551 20 is_stmt 0 view .LVU387
 1399 0016 0C22     		movs	r2, #12
 1400 0018 4261     		str	r2, [r0, #20]
 552:Core/Src/main.c ****   huart3.Init.OverSampling = UART_OVERSAMPLING_16;
 1401              		.loc 1 552 3 is_stmt 1 view .LVU388
 552:Core/Src/main.c ****   huart3.Init.OverSampling = UART_OVERSAMPLING_16;
 1402              		.loc 1 552 25 is_stmt 0 view .LVU389
 1403 001a 8361     		str	r3, [r0, #24]
 553:Core/Src/main.c ****   huart3.Init.OneBitSampling = UART_ONE_BIT_SAMPLE_DISABLE;
 1404              		.loc 1 553 3 is_stmt 1 view .LVU390
 553:Core/Src/main.c ****   huart3.Init.OneBitSampling = UART_ONE_BIT_SAMPLE_DISABLE;
 1405              		.loc 1 553 28 is_stmt 0 view .LVU391
 1406 001c C361     		str	r3, [r0, #28]
 554:Core/Src/main.c ****   huart3.Init.ClockPrescaler = UART_PRESCALER_DIV1;
 1407              		.loc 1 554 3 is_stmt 1 view .LVU392
 554:Core/Src/main.c ****   huart3.Init.ClockPrescaler = UART_PRESCALER_DIV1;
 1408              		.loc 1 554 30 is_stmt 0 view .LVU393
 1409 001e 0362     		str	r3, [r0, #32]
 555:Core/Src/main.c ****   huart3.AdvancedInit.AdvFeatureInit = UART_ADVFEATURE_RXOVERRUNDISABLE_INIT|UART_ADVFEATURE_DMADIS
ARM GAS  /tmp/ccVvSPo8.s 			page 60


 1410              		.loc 1 555 3 is_stmt 1 view .LVU394
 555:Core/Src/main.c ****   huart3.AdvancedInit.AdvFeatureInit = UART_ADVFEATURE_RXOVERRUNDISABLE_INIT|UART_ADVFEATURE_DMADIS
 1411              		.loc 1 555 30 is_stmt 0 view .LVU395
 1412 0020 4362     		str	r3, [r0, #36]
 556:Core/Src/main.c ****   huart3.AdvancedInit.OverrunDisable = UART_ADVFEATURE_OVERRUN_DISABLE;
 1413              		.loc 1 556 3 is_stmt 1 view .LVU396
 556:Core/Src/main.c ****   huart3.AdvancedInit.OverrunDisable = UART_ADVFEATURE_OVERRUN_DISABLE;
 1414              		.loc 1 556 38 is_stmt 0 view .LVU397
 1415 0022 3023     		movs	r3, #48
 1416 0024 8362     		str	r3, [r0, #40]
 557:Core/Src/main.c ****   huart3.AdvancedInit.DMADisableonRxError = UART_ADVFEATURE_DMA_DISABLEONRXERROR;
 1417              		.loc 1 557 3 is_stmt 1 view .LVU398
 557:Core/Src/main.c ****   huart3.AdvancedInit.DMADisableonRxError = UART_ADVFEATURE_DMA_DISABLEONRXERROR;
 1418              		.loc 1 557 38 is_stmt 0 view .LVU399
 1419 0026 4FF48053 		mov	r3, #4096
 1420 002a C363     		str	r3, [r0, #60]
 558:Core/Src/main.c ****   if (HAL_UART_Init(&huart3) != HAL_OK)
 1421              		.loc 1 558 3 is_stmt 1 view .LVU400
 558:Core/Src/main.c ****   if (HAL_UART_Init(&huart3) != HAL_OK)
 1422              		.loc 1 558 43 is_stmt 0 view .LVU401
 1423 002c 4FF40053 		mov	r3, #8192
 1424 0030 0364     		str	r3, [r0, #64]
 559:Core/Src/main.c ****   {
 1425              		.loc 1 559 3 is_stmt 1 view .LVU402
 559:Core/Src/main.c ****   {
 1426              		.loc 1 559 7 is_stmt 0 view .LVU403
 1427 0032 FFF7FEFF 		bl	HAL_UART_Init
 1428              	.LVL80:
 559:Core/Src/main.c ****   {
 1429              		.loc 1 559 6 view .LVU404
 1430 0036 70B9     		cbnz	r0, .L85
 563:Core/Src/main.c ****   {
 1431              		.loc 1 563 3 is_stmt 1 view .LVU405
 563:Core/Src/main.c ****   {
 1432              		.loc 1 563 7 is_stmt 0 view .LVU406
 1433 0038 0021     		movs	r1, #0
 1434 003a 0B48     		ldr	r0, .L89
 1435 003c FFF7FEFF 		bl	HAL_UARTEx_SetTxFifoThreshold
 1436              	.LVL81:
 563:Core/Src/main.c ****   {
 1437              		.loc 1 563 6 view .LVU407
 1438 0040 58B9     		cbnz	r0, .L86
 567:Core/Src/main.c ****   {
 1439              		.loc 1 567 3 is_stmt 1 view .LVU408
 567:Core/Src/main.c ****   {
 1440              		.loc 1 567 7 is_stmt 0 view .LVU409
 1441 0042 0021     		movs	r1, #0
 1442 0044 0848     		ldr	r0, .L89
 1443 0046 FFF7FEFF 		bl	HAL_UARTEx_SetRxFifoThreshold
 1444              	.LVL82:
 567:Core/Src/main.c ****   {
 1445              		.loc 1 567 6 view .LVU410
 1446 004a 40B9     		cbnz	r0, .L87
 571:Core/Src/main.c ****   {
 1447              		.loc 1 571 3 is_stmt 1 view .LVU411
 571:Core/Src/main.c ****   {
 1448              		.loc 1 571 7 is_stmt 0 view .LVU412
ARM GAS  /tmp/ccVvSPo8.s 			page 61


 1449 004c 0648     		ldr	r0, .L89
 1450 004e FFF7FEFF 		bl	HAL_UARTEx_DisableFifoMode
 1451              	.LVL83:
 571:Core/Src/main.c ****   {
 1452              		.loc 1 571 6 view .LVU413
 1453 0052 30B9     		cbnz	r0, .L88
 579:Core/Src/main.c **** 
 1454              		.loc 1 579 1 view .LVU414
 1455 0054 08BD     		pop	{r3, pc}
 1456              	.L85:
 561:Core/Src/main.c ****   }
 1457              		.loc 1 561 5 is_stmt 1 view .LVU415
 1458 0056 FFF7FEFF 		bl	Error_Handler
 1459              	.LVL84:
 1460              	.L86:
 565:Core/Src/main.c ****   }
 1461              		.loc 1 565 5 view .LVU416
 1462 005a FFF7FEFF 		bl	Error_Handler
 1463              	.LVL85:
 1464              	.L87:
 569:Core/Src/main.c ****   }
 1465              		.loc 1 569 5 view .LVU417
 1466 005e FFF7FEFF 		bl	Error_Handler
 1467              	.LVL86:
 1468              	.L88:
 573:Core/Src/main.c ****   }
 1469              		.loc 1 573 5 view .LVU418
 1470 0062 FFF7FEFF 		bl	Error_Handler
 1471              	.LVL87:
 1472              	.L90:
 1473 0066 00BF     		.align	2
 1474              	.L89:
 1475 0068 00000000 		.word	huart3
 1476 006c 00480040 		.word	1073760256
 1477              		.cfi_endproc
 1478              	.LFE159:
 1480              		.section	.text.SystemClock_Config,"ax",%progbits
 1481              		.align	1
 1482              		.global	SystemClock_Config
 1483              		.syntax unified
 1484              		.thumb
 1485              		.thumb_func
 1486              		.fpu fpv5-d16
 1488              	SystemClock_Config:
 1489              	.LFB158:
 486:Core/Src/main.c ****   RCC_OscInitTypeDef RCC_OscInitStruct = {0};
 1490              		.loc 1 486 1 view -0
 1491              		.cfi_startproc
 1492              		@ args = 0, pretend = 0, frame = 112
 1493              		@ frame_needed = 0, uses_anonymous_args = 0
 1494 0000 00B5     		push	{lr}
 1495              	.LCFI30:
 1496              		.cfi_def_cfa_offset 4
 1497              		.cfi_offset 14, -4
 1498 0002 9DB0     		sub	sp, sp, #116
 1499              	.LCFI31:
 1500              		.cfi_def_cfa_offset 120
ARM GAS  /tmp/ccVvSPo8.s 			page 62


 487:Core/Src/main.c ****   RCC_ClkInitTypeDef RCC_ClkInitStruct = {0};
 1501              		.loc 1 487 3 view .LVU420
 487:Core/Src/main.c ****   RCC_ClkInitTypeDef RCC_ClkInitStruct = {0};
 1502              		.loc 1 487 22 is_stmt 0 view .LVU421
 1503 0004 4C22     		movs	r2, #76
 1504 0006 0021     		movs	r1, #0
 1505 0008 09A8     		add	r0, sp, #36
 1506 000a FFF7FEFF 		bl	memset
 1507              	.LVL88:
 488:Core/Src/main.c **** 
 1508              		.loc 1 488 3 is_stmt 1 view .LVU422
 488:Core/Src/main.c **** 
 1509              		.loc 1 488 22 is_stmt 0 view .LVU423
 1510 000e 2022     		movs	r2, #32
 1511 0010 0021     		movs	r1, #0
 1512 0012 01A8     		add	r0, sp, #4
 1513 0014 FFF7FEFF 		bl	memset
 1514              	.LVL89:
 492:Core/Src/main.c **** 
 1515              		.loc 1 492 3 is_stmt 1 view .LVU424
 1516 0018 0220     		movs	r0, #2
 1517 001a FFF7FEFF 		bl	HAL_PWREx_ConfigSupply
 1518              	.LVL90:
 496:Core/Src/main.c **** 
 1519              		.loc 1 496 3 view .LVU425
 1520              	.LBB21:
 496:Core/Src/main.c **** 
 1521              		.loc 1 496 3 view .LVU426
 1522 001e 0023     		movs	r3, #0
 1523 0020 0093     		str	r3, [sp]
 496:Core/Src/main.c **** 
 1524              		.loc 1 496 3 view .LVU427
 496:Core/Src/main.c **** 
 1525              		.loc 1 496 3 view .LVU428
 1526 0022 1E4B     		ldr	r3, .L98
 1527 0024 DA6A     		ldr	r2, [r3, #44]
 1528 0026 22F00102 		bic	r2, r2, #1
 1529 002a DA62     		str	r2, [r3, #44]
 496:Core/Src/main.c **** 
 1530              		.loc 1 496 3 view .LVU429
 1531 002c DB6A     		ldr	r3, [r3, #44]
 1532 002e 03F00103 		and	r3, r3, #1
 1533 0032 0093     		str	r3, [sp]
 496:Core/Src/main.c **** 
 1534              		.loc 1 496 3 view .LVU430
 1535 0034 1A4A     		ldr	r2, .L98+4
 1536 0036 9369     		ldr	r3, [r2, #24]
 1537 0038 23F44043 		bic	r3, r3, #49152
 1538 003c 43F48043 		orr	r3, r3, #16384
 1539 0040 9361     		str	r3, [r2, #24]
 496:Core/Src/main.c **** 
 1540              		.loc 1 496 3 view .LVU431
 1541 0042 9369     		ldr	r3, [r2, #24]
 1542 0044 03F44043 		and	r3, r3, #49152
 1543 0048 0093     		str	r3, [sp]
 496:Core/Src/main.c **** 
 1544              		.loc 1 496 3 view .LVU432
ARM GAS  /tmp/ccVvSPo8.s 			page 63


 1545 004a 009B     		ldr	r3, [sp]
 1546              	.LBE21:
 496:Core/Src/main.c **** 
 1547              		.loc 1 496 3 view .LVU433
 498:Core/Src/main.c **** 
 1548              		.loc 1 498 3 view .LVU434
 1549              	.L92:
 498:Core/Src/main.c **** 
 1550              		.loc 1 498 48 discriminator 1 view .LVU435
 498:Core/Src/main.c **** 
 1551              		.loc 1 498 8 discriminator 1 view .LVU436
 498:Core/Src/main.c **** 
 1552              		.loc 1 498 10 is_stmt 0 discriminator 1 view .LVU437
 1553 004c 144B     		ldr	r3, .L98+4
 1554 004e 9B69     		ldr	r3, [r3, #24]
 498:Core/Src/main.c **** 
 1555              		.loc 1 498 8 discriminator 1 view .LVU438
 1556 0050 13F4005F 		tst	r3, #8192
 1557 0054 FAD0     		beq	.L92
 503:Core/Src/main.c ****   RCC_OscInitStruct.HSIState = RCC_HSI_DIV1;
 1558              		.loc 1 503 3 is_stmt 1 view .LVU439
 503:Core/Src/main.c ****   RCC_OscInitStruct.HSIState = RCC_HSI_DIV1;
 1559              		.loc 1 503 36 is_stmt 0 view .LVU440
 1560 0056 0223     		movs	r3, #2
 1561 0058 0993     		str	r3, [sp, #36]
 504:Core/Src/main.c ****   RCC_OscInitStruct.HSICalibrationValue = RCC_HSICALIBRATION_DEFAULT;
 1562              		.loc 1 504 3 is_stmt 1 view .LVU441
 504:Core/Src/main.c ****   RCC_OscInitStruct.HSICalibrationValue = RCC_HSICALIBRATION_DEFAULT;
 1563              		.loc 1 504 30 is_stmt 0 view .LVU442
 1564 005a 0123     		movs	r3, #1
 1565 005c 0C93     		str	r3, [sp, #48]
 505:Core/Src/main.c ****   RCC_OscInitStruct.PLL.PLLState = RCC_PLL_NONE;
 1566              		.loc 1 505 3 is_stmt 1 view .LVU443
 505:Core/Src/main.c ****   RCC_OscInitStruct.PLL.PLLState = RCC_PLL_NONE;
 1567              		.loc 1 505 41 is_stmt 0 view .LVU444
 1568 005e 4023     		movs	r3, #64
 1569 0060 0D93     		str	r3, [sp, #52]
 506:Core/Src/main.c ****   if (HAL_RCC_OscConfig(&RCC_OscInitStruct) != HAL_OK)
 1570              		.loc 1 506 3 is_stmt 1 view .LVU445
 506:Core/Src/main.c ****   if (HAL_RCC_OscConfig(&RCC_OscInitStruct) != HAL_OK)
 1571              		.loc 1 506 34 is_stmt 0 view .LVU446
 1572 0062 0023     		movs	r3, #0
 1573 0064 1293     		str	r3, [sp, #72]
 507:Core/Src/main.c ****   {
 1574              		.loc 1 507 3 is_stmt 1 view .LVU447
 507:Core/Src/main.c ****   {
 1575              		.loc 1 507 7 is_stmt 0 view .LVU448
 1576 0066 09A8     		add	r0, sp, #36
 1577 0068 FFF7FEFF 		bl	HAL_RCC_OscConfig
 1578              	.LVL91:
 507:Core/Src/main.c ****   {
 1579              		.loc 1 507 6 view .LVU449
 1580 006c 90B9     		cbnz	r0, .L96
 514:Core/Src/main.c ****                               |RCC_CLOCKTYPE_PCLK1|RCC_CLOCKTYPE_PCLK2
 1581              		.loc 1 514 3 is_stmt 1 view .LVU450
 514:Core/Src/main.c ****                               |RCC_CLOCKTYPE_PCLK1|RCC_CLOCKTYPE_PCLK2
 1582              		.loc 1 514 31 is_stmt 0 view .LVU451
ARM GAS  /tmp/ccVvSPo8.s 			page 64


 1583 006e 3F23     		movs	r3, #63
 1584 0070 0193     		str	r3, [sp, #4]
 517:Core/Src/main.c ****   RCC_ClkInitStruct.SYSCLKDivider = RCC_SYSCLK_DIV1;
 1585              		.loc 1 517 3 is_stmt 1 view .LVU452
 517:Core/Src/main.c ****   RCC_ClkInitStruct.SYSCLKDivider = RCC_SYSCLK_DIV1;
 1586              		.loc 1 517 34 is_stmt 0 view .LVU453
 1587 0072 0023     		movs	r3, #0
 1588 0074 0293     		str	r3, [sp, #8]
 518:Core/Src/main.c ****   RCC_ClkInitStruct.AHBCLKDivider = RCC_HCLK_DIV1;
 1589              		.loc 1 518 3 is_stmt 1 view .LVU454
 518:Core/Src/main.c ****   RCC_ClkInitStruct.AHBCLKDivider = RCC_HCLK_DIV1;
 1590              		.loc 1 518 35 is_stmt 0 view .LVU455
 1591 0076 0393     		str	r3, [sp, #12]
 519:Core/Src/main.c ****   RCC_ClkInitStruct.APB3CLKDivider = RCC_APB3_DIV1;
 1592              		.loc 1 519 3 is_stmt 1 view .LVU456
 519:Core/Src/main.c ****   RCC_ClkInitStruct.APB3CLKDivider = RCC_APB3_DIV1;
 1593              		.loc 1 519 35 is_stmt 0 view .LVU457
 1594 0078 0493     		str	r3, [sp, #16]
 520:Core/Src/main.c ****   RCC_ClkInitStruct.APB1CLKDivider = RCC_APB1_DIV2;
 1595              		.loc 1 520 3 is_stmt 1 view .LVU458
 520:Core/Src/main.c ****   RCC_ClkInitStruct.APB1CLKDivider = RCC_APB1_DIV2;
 1596              		.loc 1 520 36 is_stmt 0 view .LVU459
 1597 007a 0593     		str	r3, [sp, #20]
 521:Core/Src/main.c ****   RCC_ClkInitStruct.APB2CLKDivider = RCC_APB2_DIV1;
 1598              		.loc 1 521 3 is_stmt 1 view .LVU460
 521:Core/Src/main.c ****   RCC_ClkInitStruct.APB2CLKDivider = RCC_APB2_DIV1;
 1599              		.loc 1 521 36 is_stmt 0 view .LVU461
 1600 007c 4022     		movs	r2, #64
 1601 007e 0692     		str	r2, [sp, #24]
 522:Core/Src/main.c ****   RCC_ClkInitStruct.APB4CLKDivider = RCC_APB4_DIV1;
 1602              		.loc 1 522 3 is_stmt 1 view .LVU462
 522:Core/Src/main.c ****   RCC_ClkInitStruct.APB4CLKDivider = RCC_APB4_DIV1;
 1603              		.loc 1 522 36 is_stmt 0 view .LVU463
 1604 0080 0793     		str	r3, [sp, #28]
 523:Core/Src/main.c **** 
 1605              		.loc 1 523 3 is_stmt 1 view .LVU464
 523:Core/Src/main.c **** 
 1606              		.loc 1 523 36 is_stmt 0 view .LVU465
 1607 0082 0893     		str	r3, [sp, #32]
 525:Core/Src/main.c ****   {
 1608              		.loc 1 525 3 is_stmt 1 view .LVU466
 525:Core/Src/main.c ****   {
 1609              		.loc 1 525 7 is_stmt 0 view .LVU467
 1610 0084 0121     		movs	r1, #1
 1611 0086 01A8     		add	r0, sp, #4
 1612 0088 FFF7FEFF 		bl	HAL_RCC_ClockConfig
 1613              	.LVL92:
 525:Core/Src/main.c ****   {
 1614              		.loc 1 525 6 view .LVU468
 1615 008c 20B9     		cbnz	r0, .L97
 529:Core/Src/main.c **** 
 1616              		.loc 1 529 1 view .LVU469
 1617 008e 1DB0     		add	sp, sp, #116
 1618              	.LCFI32:
 1619              		.cfi_remember_state
 1620              		.cfi_def_cfa_offset 4
 1621              		@ sp needed
ARM GAS  /tmp/ccVvSPo8.s 			page 65


 1622 0090 5DF804FB 		ldr	pc, [sp], #4
 1623              	.L96:
 1624              	.LCFI33:
 1625              		.cfi_restore_state
 509:Core/Src/main.c ****   }
 1626              		.loc 1 509 5 is_stmt 1 view .LVU470
 1627 0094 FFF7FEFF 		bl	Error_Handler
 1628              	.LVL93:
 1629              	.L97:
 527:Core/Src/main.c ****   }
 1630              		.loc 1 527 5 view .LVU471
 1631 0098 FFF7FEFF 		bl	Error_Handler
 1632              	.LVL94:
 1633              	.L99:
 1634              		.align	2
 1635              	.L98:
 1636 009c 00040058 		.word	1476396032
 1637 00a0 00480258 		.word	1476544512
 1638              		.cfi_endproc
 1639              	.LFE158:
 1641              		.section	.rodata.main.str1.4,"aMS",%progbits,1
 1642              		.align	2
 1643              	.LC1:
 1644 0000 53746172 		.ascii	"Startup...\012\000"
 1644      7475702E 
 1644      2E2E0A00 
 1645              		.align	2
 1646              	.LC2:
 1647 000c 676F00   		.ascii	"go\000"
 1648 000f 00       		.align	2
 1649              	.LC3:
 1650 0010 636F6E66 		.ascii	"conf\000"
 1650      00
 1651 0015 000000   		.align	2
 1652              	.LC4:
 1653 0018 636F6E74 		.ascii	"cont\000"
 1653      00
 1654 001d 000000   		.align	2
 1655              	.LC5:
 1656 0020 636F6E66 		.ascii	"conf ACK\012\000"
 1656      2041434B 
 1656      0A00
 1657 002a 0000     		.align	2
 1658              	.LC6:
 1659 002c 41434B0A 		.ascii	"ACK\012\000"
 1659      00
 1660 0031 000000   		.align	2
 1661              	.LC7:
 1662 0034 636F6E74 		.ascii	"cont ACK\012\000"
 1662      2041434B 
 1662      0A00
 1663 003e 0000     		.align	2
 1664              	.LC8:
 1665 0040 676F204E 		.ascii	"go NACK\012\000"
 1665      41434B0A 
 1665      00
 1666 0049 000000   		.align	2
ARM GAS  /tmp/ccVvSPo8.s 			page 66


 1667              	.LC9:
 1668 004c 25643A00 		.ascii	"%d:\000"
 1669              		.align	2
 1670              	.LC10:
 1671 0050 25642C00 		.ascii	"%d,\000"
 1672              		.align	2
 1673              	.LC11:
 1674 0054 0A00     		.ascii	"\012\000"
 1675 0056 0000     		.align	2
 1676              	.LC12:
 1677 0058 676F2041 		.ascii	"go ACK\012\000"
 1677      434B0A00 
 1678              		.section	.text.main,"ax",%progbits
 1679              		.align	1
 1680              		.global	main
 1681              		.syntax unified
 1682              		.thumb
 1683              		.thumb_func
 1684              		.fpu fpv5-d16
 1686              	main:
 1687              	.LFB157:
 324:Core/Src/main.c **** 
 1688              		.loc 1 324 1 view -0
 1689              		.cfi_startproc
 1690              		@ args = 0, pretend = 0, frame = 8
 1691              		@ frame_needed = 1, uses_anonymous_args = 0
 1692 0000 2DE9F043 		push	{r4, r5, r6, r7, r8, r9, lr}
 1693              	.LCFI34:
 1694              		.cfi_def_cfa_offset 28
 1695              		.cfi_offset 4, -28
 1696              		.cfi_offset 5, -24
 1697              		.cfi_offset 6, -20
 1698              		.cfi_offset 7, -16
 1699              		.cfi_offset 8, -12
 1700              		.cfi_offset 9, -8
 1701              		.cfi_offset 14, -4
 1702 0004 83B0     		sub	sp, sp, #12
 1703              	.LCFI35:
 1704              		.cfi_def_cfa_offset 40
 1705 0006 00AF     		add	r7, sp, #0
 1706              	.LCFI36:
 1707              		.cfi_def_cfa_register 7
 331:Core/Src/main.c **** 
 1708              		.loc 1 331 3 view .LVU473
 1709 0008 FFF7FEFF 		bl	MPU_Config
 1710              	.LVL95:
 336:Core/Src/main.c **** 
 1711              		.loc 1 336 3 view .LVU474
 1712 000c FFF7FEFF 		bl	HAL_Init
 1713              	.LVL96:
 342:Core/Src/main.c **** 
 1714              		.loc 1 342 3 view .LVU475
 1715 0010 FFF7FEFF 		bl	SystemClock_Config
 1716              	.LVL97:
 349:Core/Src/main.c ****   MX_DMA_Init();
 1717              		.loc 1 349 3 view .LVU476
 1718 0014 FFF7FEFF 		bl	MX_GPIO_Init
ARM GAS  /tmp/ccVvSPo8.s 			page 67


 1719              	.LVL98:
 350:Core/Src/main.c ****   MX_USART3_UART_Init();
 1720              		.loc 1 350 3 view .LVU477
 1721 0018 FFF7FEFF 		bl	MX_DMA_Init
 1722              	.LVL99:
 351:Core/Src/main.c ****   /* USER CODE BEGIN 2 */
 1723              		.loc 1 351 3 view .LVU478
 1724 001c FFF7FEFF 		bl	MX_USART3_UART_Init
 1725              	.LVL100:
 353:Core/Src/main.c ****   bool append = false;
 1726              		.loc 1 353 3 view .LVU479
 354:Core/Src/main.c ****   HAL_UART_Transmit_DMA(&huart3, (uint8_t*)"Startup...\n", 11);
 1727              		.loc 1 354 3 view .LVU480
 355:Core/Src/main.c ****   HAL_UARTEx_ReceiveToIdle_DMA(&huart3, rx3_buf, RX3_BUF_SIZE);
 1728              		.loc 1 355 3 view .LVU481
 1729 0020 804C     		ldr	r4, .L132
 1730 0022 0B22     		movs	r2, #11
 1731 0024 8049     		ldr	r1, .L132+4
 1732 0026 2046     		mov	r0, r4
 1733 0028 FFF7FEFF 		bl	HAL_UART_Transmit_DMA
 1734              	.LVL101:
 356:Core/Src/main.c ****   for(int i = 0; i < GPIO_PINS_Len; i++) {
 1735              		.loc 1 356 3 view .LVU482
 1736 002c 4FF48072 		mov	r2, #256
 1737 0030 7E49     		ldr	r1, .L132+8
 1738 0032 2046     		mov	r0, r4
 1739 0034 FFF7FEFF 		bl	HAL_UARTEx_ReceiveToIdle_DMA
 1740              	.LVL102:
 357:Core/Src/main.c ****     set_pin_input(Pins[i]);
 1741              		.loc 1 357 3 view .LVU483
 1742              	.LBB22:
 357:Core/Src/main.c ****     set_pin_input(Pins[i]);
 1743              		.loc 1 357 7 view .LVU484
 357:Core/Src/main.c ****     set_pin_input(Pins[i]);
 1744              		.loc 1 357 11 is_stmt 0 view .LVU485
 1745 0038 0024     		movs	r4, #0
 357:Core/Src/main.c ****     set_pin_input(Pins[i]);
 1746              		.loc 1 357 3 view .LVU486
 1747 003a 07E0     		b	.L101
 1748              	.LVL103:
 1749              	.L102:
 358:Core/Src/main.c ****   }
 1750              		.loc 1 358 5 is_stmt 1 discriminator 3 view .LVU487
 1751 003c 7C4B     		ldr	r3, .L132+12
 1752 003e 03EBC403 		add	r3, r3, r4, lsl #3
 1753 0042 93E80300 		ldm	r3, {r0, r1}
 1754 0046 FFF7FEFF 		bl	set_pin_input
 1755              	.LVL104:
 357:Core/Src/main.c ****     set_pin_input(Pins[i]);
 1756              		.loc 1 357 37 discriminator 3 view .LVU488
 357:Core/Src/main.c ****     set_pin_input(Pins[i]);
 1757              		.loc 1 357 38 is_stmt 0 discriminator 3 view .LVU489
 1758 004a 0134     		adds	r4, r4, #1
 1759              	.LVL105:
 1760              	.L101:
 357:Core/Src/main.c ****     set_pin_input(Pins[i]);
 1761              		.loc 1 357 18 is_stmt 1 discriminator 1 view .LVU490
ARM GAS  /tmp/ccVvSPo8.s 			page 68


 357:Core/Src/main.c ****     set_pin_input(Pins[i]);
 1762              		.loc 1 357 3 is_stmt 0 discriminator 1 view .LVU491
 1763 004c 472C     		cmp	r4, #71
 1764 004e F5DD     		ble	.L102
 1765              	.LBE22:
 354:Core/Src/main.c ****   HAL_UART_Transmit_DMA(&huart3, (uint8_t*)"Startup...\n", 11);
 1766              		.loc 1 354 8 view .LVU492
 1767 0050 0026     		movs	r6, #0
 353:Core/Src/main.c ****   bool append = false;
 1768              		.loc 1 353 9 view .LVU493
 1769 0052 0424     		movs	r4, #4
 1770              	.LVL106:
 353:Core/Src/main.c ****   bool append = false;
 1771              		.loc 1 353 9 view .LVU494
 1772 0054 6CE0     		b	.L103
 1773              	.LVL107:
 1774              	.L113:
 1775              	.LBB23:
 395:Core/Src/main.c **** 
 1776              		.loc 1 395 7 is_stmt 1 view .LVU495
 395:Core/Src/main.c **** 
 1777              		.loc 1 395 7 is_stmt 0 view .LVU496
 1778              	.LBE23:
 364:Core/Src/main.c ****   {
 1779              		.loc 1 364 3 is_stmt 1 view .LVU497
 366:Core/Src/main.c ****       case Default:
 1780              		.loc 1 366 5 view .LVU498
 1781              	.LBB32:
 1782              	.LBB24:
 384:Core/Src/main.c ****               break;
 1783              		.loc 1 384 21 is_stmt 0 view .LVU499
 1784 0056 0124     		movs	r4, #1
 1785 0058 52E0     		b	.L108
 1786              	.LVL108:
 1787              	.L128:
 384:Core/Src/main.c ****               break;
 1788              		.loc 1 384 21 view .LVU500
 1789              	.LBE24:
 400:Core/Src/main.c ****             do_Tx(&huart3, rx3_buf, rx3_len);
 1790              		.loc 1 400 13 is_stmt 1 view .LVU501
 400:Core/Src/main.c ****             do_Tx(&huart3, rx3_buf, rx3_len);
 1791              		.loc 1 400 22 is_stmt 0 view .LVU502
 1792 005a 764B     		ldr	r3, .L132+16
 1793 005c 0022     		movs	r2, #0
 1794 005e 1A70     		strb	r2, [r3]
 401:Core/Src/main.c ****             HAL_Delay(50);
 1795              		.loc 1 401 13 is_stmt 1 view .LVU503
 1796 0060 754B     		ldr	r3, .L132+20
 1797 0062 1A78     		ldrb	r2, [r3]	@ zero_extendqisi2
 1798 0064 7149     		ldr	r1, .L132+8
 1799 0066 6F48     		ldr	r0, .L132
 1800 0068 FFF7FEFF 		bl	do_Tx
 1801              	.LVL109:
 402:Core/Src/main.c ****           }
 1802              		.loc 1 402 13 view .LVU504
 1803 006c 3220     		movs	r0, #50
 1804 006e FFF7FEFF 		bl	HAL_Delay
ARM GAS  /tmp/ccVvSPo8.s 			page 69


 1805              	.LVL110:
 1806              	.L115:
 398:Core/Src/main.c ****           if (rx3_done == true) {
 1807              		.loc 1 398 9 view .LVU505
 399:Core/Src/main.c ****             rx3_done = false;
 1808              		.loc 1 399 11 view .LVU506
 399:Core/Src/main.c ****             rx3_done = false;
 1809              		.loc 1 399 24 is_stmt 0 view .LVU507
 1810 0072 704B     		ldr	r3, .L132+16
 1811 0074 1B78     		ldrb	r3, [r3]	@ zero_extendqisi2
 399:Core/Src/main.c ****             rx3_done = false;
 1812              		.loc 1 399 14 view .LVU508
 1813 0076 002B     		cmp	r3, #0
 1814 0078 FBD0     		beq	.L115
 1815 007a EEE7     		b	.L128
 1816              	.LVL111:
 1817              	.L129:
 1818              	.LBB25:
 419:Core/Src/main.c ****               break;
 1819              		.loc 1 419 13 is_stmt 1 view .LVU509
 419:Core/Src/main.c ****               break;
 1820              		.loc 1 419 17 is_stmt 0 view .LVU510
 1821 007c 3246     		mov	r2, r6
 1822 007e 3978     		ldrb	r1, [r7]	@ zero_extendqisi2
 1823 0080 4046     		mov	r0, r8
 1824 0082 FFF7FEFF 		bl	apply_pin_config
 1825              	.LVL112:
 419:Core/Src/main.c ****               break;
 1826              		.loc 1 419 16 view .LVU511
 1827 0086 0028     		cmp	r0, #0
 1828 0088 51D1     		bne	.L117
 424:Core/Src/main.c ****             state = Default;
 1829              		.loc 1 424 13 is_stmt 1 view .LVU512
 1830 008a 0422     		movs	r2, #4
 1831 008c 6B49     		ldr	r1, .L132+24
 1832 008e 6548     		ldr	r0, .L132
 1833 0090 FFF7FEFF 		bl	do_Tx
 1834              	.LVL113:
 425:Core/Src/main.c ****             append = false;
 1835              		.loc 1 425 13 view .LVU513
 426:Core/Src/main.c ****             break;
 1836              		.loc 1 426 13 view .LVU514
 427:Core/Src/main.c ****           }
 1837              		.loc 1 427 13 view .LVU515
 427:Core/Src/main.c ****           }
 1838              		.loc 1 427 13 is_stmt 0 view .LVU516
 1839 0094 AD46     		mov	sp, r5
 1840              	.LBE25:
 431:Core/Src/main.c ****       case Continue: 
 1841              		.loc 1 431 7 is_stmt 1 view .LVU517
 431:Core/Src/main.c ****       case Continue: 
 1842              		.loc 1 431 7 is_stmt 0 view .LVU518
 1843              	.LBE32:
 364:Core/Src/main.c ****   {
 1844              		.loc 1 364 3 is_stmt 1 view .LVU519
 366:Core/Src/main.c ****       case Default:
 1845              		.loc 1 366 5 view .LVU520
ARM GAS  /tmp/ccVvSPo8.s 			page 70


 1846              	.LBB33:
 1847              	.LBB26:
 425:Core/Src/main.c ****             append = false;
 1848              		.loc 1 425 19 is_stmt 0 view .LVU521
 1849 0096 0424     		movs	r4, #4
 426:Core/Src/main.c ****             break;
 1850              		.loc 1 426 20 view .LVU522
 1851 0098 0026     		movs	r6, #0
 1852 009a 0CE0     		b	.L110
 1853              	.LVL114:
 1854              	.L109:
 426:Core/Src/main.c ****             break;
 1855              		.loc 1 426 20 view .LVU523
 1856              	.LBE26:
 441:Core/Src/main.c ****               #ifdef Debug
 1857              		.loc 1 441 11 is_stmt 1 view .LVU524
 441:Core/Src/main.c ****               #ifdef Debug
 1858              		.loc 1 441 31 is_stmt 0 view .LVU525
 1859 009c 684B     		ldr	r3, .L132+28
 1860 009e 1B78     		ldrb	r3, [r3]	@ zero_extendqisi2
 441:Core/Src/main.c ****               #ifdef Debug
 1861              		.loc 1 441 14 view .LVU526
 1862 00a0 1BB1     		cbz	r3, .L119
 441:Core/Src/main.c ****               #ifdef Debug
 1863              		.loc 1 441 53 discriminator 1 view .LVU527
 1864 00a2 684B     		ldr	r3, .L132+32
 1865 00a4 1B78     		ldrb	r3, [r3]	@ zero_extendqisi2
 441:Core/Src/main.c ****               #ifdef Debug
 1866              		.loc 1 441 35 discriminator 1 view .LVU528
 1867 00a6 002B     		cmp	r3, #0
 1868 00a8 52D1     		bne	.L120
 1869              	.L119:
 445:Core/Src/main.c ****               state = Default;
 1870              		.loc 1 445 15 is_stmt 1 view .LVU529
 1871 00aa 0822     		movs	r2, #8
 1872 00ac 6649     		ldr	r1, .L132+36
 1873 00ae 5D48     		ldr	r0, .L132
 1874 00b0 FFF7FEFF 		bl	do_Tx
 1875              	.LVL115:
 446:Core/Src/main.c ****               break;
 1876              		.loc 1 446 15 view .LVU530
 447:Core/Src/main.c ****           }
 1877              		.loc 1 447 15 view .LVU531
 447:Core/Src/main.c ****           }
 1878              		.loc 1 447 15 is_stmt 0 view .LVU532
 1879              	.LBE33:
 364:Core/Src/main.c ****   {
 1880              		.loc 1 364 3 is_stmt 1 view .LVU533
 366:Core/Src/main.c ****       case Default:
 1881              		.loc 1 366 5 view .LVU534
 1882              	.LBB34:
 446:Core/Src/main.c ****               break;
 1883              		.loc 1 446 21 is_stmt 0 view .LVU535
 1884 00b4 0424     		movs	r4, #4
 1885              	.LVL116:
 1886              	.L110:
 368:Core/Src/main.c ****           if(rx3_done == true) {
ARM GAS  /tmp/ccVvSPo8.s 			page 71


 1887              		.loc 1 368 9 is_stmt 1 view .LVU536
 369:Core/Src/main.c ****             rx3_done = false;
 1888              		.loc 1 369 11 view .LVU537
 369:Core/Src/main.c ****             rx3_done = false;
 1889              		.loc 1 369 23 is_stmt 0 view .LVU538
 1890 00b6 5F4B     		ldr	r3, .L132+16
 1891 00b8 1B78     		ldrb	r3, [r3]	@ zero_extendqisi2
 369:Core/Src/main.c ****             rx3_done = false;
 1892              		.loc 1 369 13 view .LVU539
 1893 00ba 002B     		cmp	r3, #0
 1894 00bc FBD0     		beq	.L110
 1895              	.LBB27:
 370:Core/Src/main.c ****             #ifdef Debug
 1896              		.loc 1 370 13 is_stmt 1 view .LVU540
 370:Core/Src/main.c ****             #ifdef Debug
 1897              		.loc 1 370 22 is_stmt 0 view .LVU541
 1898 00be 5D4B     		ldr	r3, .L132+16
 1899 00c0 0022     		movs	r2, #0
 1900 00c2 1A70     		strb	r2, [r3]
 375:Core/Src/main.c ****             if (process_ascii_input(cmd,CMD_SIZE) != 0)
 1901              		.loc 1 375 13 is_stmt 1 view .LVU542
 376:Core/Src/main.c ****               break;                
 1902              		.loc 1 376 13 view .LVU543
 376:Core/Src/main.c ****               break;                
 1903              		.loc 1 376 17 is_stmt 0 view .LVU544
 1904 00c4 0521     		movs	r1, #5
 1905 00c6 3846     		mov	r0, r7
 1906 00c8 FFF7FEFF 		bl	process_ascii_input
 1907              	.LVL117:
 376:Core/Src/main.c ****               break;                
 1908              		.loc 1 376 16 view .LVU545
 1909 00cc 0028     		cmp	r0, #0
 1910 00ce 2FD1     		bne	.L103
 379:Core/Src/main.c ****               state = Start;
 1911              		.loc 1 379 13 is_stmt 1 view .LVU546
 379:Core/Src/main.c ****               state = Start;
 1912              		.loc 1 379 17 is_stmt 0 view .LVU547
 1913 00d0 5E49     		ldr	r1, .L132+40
 1914 00d2 3846     		mov	r0, r7
 1915 00d4 FFF7FEFF 		bl	strcmp
 1916              	.LVL118:
 379:Core/Src/main.c ****               state = Start;
 1917              		.loc 1 379 16 view .LVU548
 1918 00d8 0028     		cmp	r0, #0
 1919 00da DFD0     		beq	.L109
 383:Core/Src/main.c ****               state = Configure_Pins;
 1920              		.loc 1 383 18 is_stmt 1 view .LVU549
 383:Core/Src/main.c ****               state = Configure_Pins;
 1921              		.loc 1 383 21 is_stmt 0 view .LVU550
 1922 00dc 5C49     		ldr	r1, .L132+44
 1923 00de 3846     		mov	r0, r7
 1924 00e0 FFF7FEFF 		bl	strcmp
 1925              	.LVL119:
 383:Core/Src/main.c ****               state = Configure_Pins;
 1926              		.loc 1 383 20 view .LVU551
 1927 00e4 0028     		cmp	r0, #0
 1928 00e6 B6D0     		beq	.L113
ARM GAS  /tmp/ccVvSPo8.s 			page 72


 387:Core/Src/main.c ****               state = Continue;
 1929              		.loc 1 387 18 is_stmt 1 view .LVU552
 387:Core/Src/main.c ****               state = Continue;
 1930              		.loc 1 387 21 is_stmt 0 view .LVU553
 1931 00e8 5A49     		ldr	r1, .L132+48
 1932 00ea 3846     		mov	r0, r7
 1933 00ec FFF7FEFF 		bl	strcmp
 1934              	.LVL120:
 387:Core/Src/main.c ****               state = Continue;
 1935              		.loc 1 387 20 view .LVU554
 1936 00f0 F0B9     		cbnz	r0, .L103
 1937              	.L106:
 1938              	.LBE27:
 433:Core/Src/main.c ****         append = true;
 1939              		.loc 1 433 9 is_stmt 1 view .LVU555
 1940 00f2 0922     		movs	r2, #9
 1941 00f4 5849     		ldr	r1, .L132+52
 1942 00f6 4B48     		ldr	r0, .L132
 1943 00f8 FFF7FEFF 		bl	do_Tx
 1944              	.LVL121:
 434:Core/Src/main.c ****         state = Configure_Pins;
 1945              		.loc 1 434 9 view .LVU556
 435:Core/Src/main.c ****       break;
 1946              		.loc 1 435 9 view .LVU557
 436:Core/Src/main.c ****       case Start:
 1947              		.loc 1 436 7 view .LVU558
 436:Core/Src/main.c ****       case Start:
 1948              		.loc 1 436 7 is_stmt 0 view .LVU559
 1949              	.LBE34:
 364:Core/Src/main.c ****   {
 1950              		.loc 1 364 3 is_stmt 1 view .LVU560
 366:Core/Src/main.c ****       case Default:
 1951              		.loc 1 366 5 view .LVU561
 1952              	.LBB35:
 435:Core/Src/main.c ****       break;
 1953              		.loc 1 435 15 is_stmt 0 view .LVU562
 1954 00fc 0124     		movs	r4, #1
 434:Core/Src/main.c ****         state = Configure_Pins;
 1955              		.loc 1 434 16 view .LVU563
 1956 00fe 2646     		mov	r6, r4
 1957              	.LVL122:
 1958              	.L108:
 405:Core/Src/main.c **** 
 1959              		.loc 1 405 7 is_stmt 1 view .LVU564
 411:Core/Src/main.c ****         while(1) {
 1960              		.loc 1 411 9 view .LVU565
 1961 0100 0922     		movs	r2, #9
 1962 0102 5649     		ldr	r1, .L132+56
 1963 0104 4748     		ldr	r0, .L132
 1964 0106 FFF7FEFF 		bl	do_Tx
 1965              	.LVL123:
 1966              	.L116:
 412:Core/Src/main.c ****           if(rx3_done == true) {
 1967              		.loc 1 412 9 view .LVU566
 413:Core/Src/main.c ****             rx3_done = false;
 1968              		.loc 1 413 11 view .LVU567
 413:Core/Src/main.c ****             rx3_done = false;
ARM GAS  /tmp/ccVvSPo8.s 			page 73


 1969              		.loc 1 413 23 is_stmt 0 view .LVU568
 1970 010a 4A4B     		ldr	r3, .L132+16
 1971 010c 1B78     		ldrb	r3, [r3]	@ zero_extendqisi2
 413:Core/Src/main.c ****             rx3_done = false;
 1972              		.loc 1 413 13 view .LVU569
 1973 010e 002B     		cmp	r3, #0
 1974 0110 FBD0     		beq	.L116
 1975              	.LBB28:
 413:Core/Src/main.c ****             rx3_done = false;
 1976              		.loc 1 413 32 discriminator 1 view .LVU570
 1977 0112 6D46     		mov	r5, sp
 414:Core/Src/main.c ****             uint8_t config_size = 64;
 1978              		.loc 1 414 13 is_stmt 1 discriminator 1 view .LVU571
 414:Core/Src/main.c ****             uint8_t config_size = 64;
 1979              		.loc 1 414 22 is_stmt 0 discriminator 1 view .LVU572
 1980 0114 474B     		ldr	r3, .L132+16
 1981 0116 0022     		movs	r2, #0
 1982 0118 1A70     		strb	r2, [r3]
 415:Core/Src/main.c ****             uint8_t config_data[config_size];
 1983              		.loc 1 415 13 is_stmt 1 discriminator 1 view .LVU573
 415:Core/Src/main.c ****             uint8_t config_data[config_size];
 1984              		.loc 1 415 21 is_stmt 0 discriminator 1 view .LVU574
 1985 011a 4023     		movs	r3, #64
 1986 011c 3B70     		strb	r3, [r7]
 416:Core/Src/main.c ****             if (process_hex_input(config_data, &config_size) != 0)
 1987              		.loc 1 416 13 is_stmt 1 discriminator 1 view .LVU575
 1988              	.LVL124:
 416:Core/Src/main.c ****             if (process_hex_input(config_data, &config_size) != 0)
 1989              		.loc 1 416 21 is_stmt 0 discriminator 1 view .LVU576
 1990 011e 90B0     		sub	sp, sp, #64
 1991 0120 E846     		mov	r8, sp
 1992              	.LVL125:
 417:Core/Src/main.c ****               break;
 1993              		.loc 1 417 13 is_stmt 1 discriminator 1 view .LVU577
 417:Core/Src/main.c ****               break;
 1994              		.loc 1 417 17 is_stmt 0 discriminator 1 view .LVU578
 1995 0122 3946     		mov	r1, r7
 1996 0124 6846     		mov	r0, sp
 1997 0126 FFF7FEFF 		bl	process_hex_input
 1998              	.LVL126:
 417:Core/Src/main.c ****               break;
 1999              		.loc 1 417 16 discriminator 1 view .LVU579
 2000 012a 0028     		cmp	r0, #0
 2001 012c A6D0     		beq	.L129
 2002              	.L117:
 2003              	.LVL127:
 417:Core/Src/main.c ****               break;
 2004              		.loc 1 417 16 discriminator 1 view .LVU580
 2005 012e AD46     		mov	sp, r5
 2006              	.LBE28:
 431:Core/Src/main.c ****       case Continue: 
 2007              		.loc 1 431 7 is_stmt 1 view .LVU581
 2008              	.LVL128:
 2009              	.L103:
 431:Core/Src/main.c ****       case Continue: 
 2010              		.loc 1 431 7 is_stmt 0 view .LVU582
 2011              	.LBE35:
ARM GAS  /tmp/ccVvSPo8.s 			page 74


 364:Core/Src/main.c ****   {
 2012              		.loc 1 364 3 is_stmt 1 view .LVU583
 366:Core/Src/main.c ****       case Default:
 2013              		.loc 1 366 5 view .LVU584
 2014 0130 042C     		cmp	r4, #4
 2015 0132 FDD8     		bhi	.L103
 2016 0134 01A3     		adr	r3, .L105
 2017 0136 53F824F0 		ldr	pc, [r3, r4, lsl #2]
 2018 013a 00BF     		.p2align 2
 2019              	.L105:
 2020 013c 9D000000 		.word	.L109+1
 2021 0140 01010000 		.word	.L108+1
 2022 0144 73000000 		.word	.L115+1
 2023 0148 F3000000 		.word	.L106+1
 2024 014c B7000000 		.word	.L110+1
 2025              	.LVL129:
 2026              		.p2align 1
 2027              	.L120:
 2028              	.LBB36:
 449:Core/Src/main.c ****           char conn_unit[7];
 2029              		.loc 1 449 11 view .LVU585
 449:Core/Src/main.c ****           char conn_unit[7];
 2030              		.loc 1 449 23 is_stmt 0 view .LVU586
 2031 0150 0025     		movs	r5, #0
 2032 0152 434B     		ldr	r3, .L132+60
 2033 0154 1D70     		strb	r5, [r3]
 450:Core/Src/main.c **** 
 2034              		.loc 1 450 11 is_stmt 1 view .LVU587
 452:Core/Src/main.c ****             set_pin_output(Output_Pins[i]);
 2035              		.loc 1 452 11 view .LVU588
 2036              	.LBB29:
 452:Core/Src/main.c ****             set_pin_output(Output_Pins[i]);
 2037              		.loc 1 452 15 view .LVU589
 2038              	.LVL130:
 452:Core/Src/main.c ****             set_pin_output(Output_Pins[i]);
 2039              		.loc 1 452 11 is_stmt 0 view .LVU590
 2040 0156 35E0     		b	.L121
 2041              	.LVL131:
 2042              	.L123:
 2043              	.LBB30:
 458:Core/Src/main.c ****               if ((HAL_GPIO_ReadPin(Pins[k].Letter, Pins[k].Number) == GPIO_PIN_SET) && (Pins[k].in
 2044              		.loc 1 458 47 is_stmt 1 discriminator 2 view .LVU591
 458:Core/Src/main.c ****               if ((HAL_GPIO_ReadPin(Pins[k].Letter, Pins[k].Number) == GPIO_PIN_SET) && (Pins[k].in
 2045              		.loc 1 458 48 is_stmt 0 discriminator 2 view .LVU592
 2046 0158 0134     		adds	r4, r4, #1
 2047              	.LVL132:
 2048              	.L122:
 458:Core/Src/main.c ****               if ((HAL_GPIO_ReadPin(Pins[k].Letter, Pins[k].Number) == GPIO_PIN_SET) && (Pins[k].in
 2049              		.loc 1 458 28 is_stmt 1 discriminator 1 view .LVU593
 458:Core/Src/main.c ****               if ((HAL_GPIO_ReadPin(Pins[k].Letter, Pins[k].Number) == GPIO_PIN_SET) && (Pins[k].in
 2050              		.loc 1 458 13 is_stmt 0 discriminator 1 view .LVU594
 2051 015a 472C     		cmp	r4, #71
 2052 015c 1CDC     		bgt	.L130
 459:Core/Src/main.c ****                 sprintf(conn_unit, "%d,", Pins[k].index);
 2053              		.loc 1 459 15 is_stmt 1 view .LVU595
 459:Core/Src/main.c ****                 sprintf(conn_unit, "%d,", Pins[k].index);
 2054              		.loc 1 459 44 is_stmt 0 view .LVU596
ARM GAS  /tmp/ccVvSPo8.s 			page 75


 2055 015e 344B     		ldr	r3, .L132+12
 459:Core/Src/main.c ****                 sprintf(conn_unit, "%d,", Pins[k].index);
 2056              		.loc 1 459 20 view .LVU597
 2057 0160 03EBC402 		add	r2, r3, r4, lsl #3
 2058 0164 9188     		ldrh	r1, [r2, #4]
 2059 0166 53F83400 		ldr	r0, [r3, r4, lsl #3]
 2060 016a FFF7FEFF 		bl	HAL_GPIO_ReadPin
 2061              	.LVL133:
 459:Core/Src/main.c ****                 sprintf(conn_unit, "%d,", Pins[k].index);
 2062              		.loc 1 459 18 view .LVU598
 2063 016e 0128     		cmp	r0, #1
 2064 0170 F2D1     		bne	.L123
 459:Core/Src/main.c ****                 sprintf(conn_unit, "%d,", Pins[k].index);
 2065              		.loc 1 459 97 discriminator 1 view .LVU599
 2066 0172 2F4B     		ldr	r3, .L132+12
 2067 0174 03EBC403 		add	r3, r3, r4, lsl #3
 2068 0178 DA88     		ldrh	r2, [r3, #6]
 459:Core/Src/main.c ****                 sprintf(conn_unit, "%d,", Pins[k].index);
 2069              		.loc 1 459 121 discriminator 1 view .LVU600
 2070 017a 3A4B     		ldr	r3, .L132+64
 2071 017c 03EBC803 		add	r3, r3, r8, lsl #3
 2072 0180 DB88     		ldrh	r3, [r3, #6]
 459:Core/Src/main.c ****                 sprintf(conn_unit, "%d,", Pins[k].index);
 2073              		.loc 1 459 86 discriminator 1 view .LVU601
 2074 0182 9A42     		cmp	r2, r3
 2075 0184 E8D0     		beq	.L123
 460:Core/Src/main.c ****                 strcat((char*)conn_msg,conn_unit);
 2076              		.loc 1 460 17 is_stmt 1 view .LVU602
 2077 0186 3849     		ldr	r1, .L132+68
 2078 0188 3846     		mov	r0, r7
 2079 018a FFF7FEFF 		bl	sprintf
 2080              	.LVL134:
 461:Core/Src/main.c ****               } 
 2081              		.loc 1 461 17 view .LVU603
 2082 018e 3946     		mov	r1, r7
 2083 0190 3348     		ldr	r0, .L132+60
 2084 0192 FFF7FEFF 		bl	strcat
 2085              	.LVL135:
 2086 0196 DFE7     		b	.L123
 2087              	.L130:
 2088              	.LBE30:
 465:Core/Src/main.c ****             set_pin_input(Output_Pins[i]);
 2089              		.loc 1 465 13 discriminator 2 view .LVU604
 2090 0198 324B     		ldr	r3, .L132+64
 2091 019a 03EBC804 		add	r4, r3, r8, lsl #3
 2092              	.LVL136:
 465:Core/Src/main.c ****             set_pin_input(Output_Pins[i]);
 2093              		.loc 1 465 13 is_stmt 0 discriminator 2 view .LVU605
 2094 019e 0022     		movs	r2, #0
 2095 01a0 A188     		ldrh	r1, [r4, #4]
 2096 01a2 53F83800 		ldr	r0, [r3, r8, lsl #3]
 2097 01a6 FFF7FEFF 		bl	HAL_GPIO_WritePin
 2098              	.LVL137:
 466:Core/Src/main.c ****             strcat((char*)conn_msg,"\n");
 2099              		.loc 1 466 13 is_stmt 1 discriminator 2 view .LVU606
 2100 01aa 94E80300 		ldm	r4, {r0, r1}
 2101 01ae FFF7FEFF 		bl	set_pin_input
ARM GAS  /tmp/ccVvSPo8.s 			page 76


 2102              	.LVL138:
 467:Core/Src/main.c ****           }
 2103              		.loc 1 467 13 discriminator 2 view .LVU607
 2104 01b2 2B4C     		ldr	r4, .L132+60
 2105 01b4 2046     		mov	r0, r4
 2106 01b6 FFF7FEFF 		bl	strlen
 2107              	.LVL139:
 2108 01ba 2C4B     		ldr	r3, .L132+72
 2109 01bc 1B88     		ldrh	r3, [r3]	@ unaligned
 2110 01be 2352     		strh	r3, [r4, r0]	@ unaligned
 452:Core/Src/main.c ****             set_pin_output(Output_Pins[i]);
 2111              		.loc 1 452 51 discriminator 2 view .LVU608
 452:Core/Src/main.c ****             set_pin_output(Output_Pins[i]);
 2112              		.loc 1 452 52 is_stmt 0 discriminator 2 view .LVU609
 2113 01c0 0135     		adds	r5, r5, #1
 2114              	.LVL140:
 452:Core/Src/main.c ****             set_pin_output(Output_Pins[i]);
 2115              		.loc 1 452 52 discriminator 2 view .LVU610
 2116 01c2 EDB2     		uxtb	r5, r5
 2117              	.LVL141:
 2118              	.L121:
 452:Core/Src/main.c ****             set_pin_output(Output_Pins[i]);
 2119              		.loc 1 452 30 is_stmt 1 discriminator 1 view .LVU611
 452:Core/Src/main.c ****             set_pin_output(Output_Pins[i]);
 2120              		.loc 1 452 32 is_stmt 0 discriminator 1 view .LVU612
 2121 01c4 1E4B     		ldr	r3, .L132+28
 2122 01c6 1B78     		ldrb	r3, [r3]	@ zero_extendqisi2
 452:Core/Src/main.c ****             set_pin_output(Output_Pins[i]);
 2123              		.loc 1 452 11 discriminator 1 view .LVU613
 2124 01c8 AB42     		cmp	r3, r5
 2125 01ca 19D9     		bls	.L131
 453:Core/Src/main.c ****             HAL_GPIO_WritePin(Output_Pins[i].Letter, Output_Pins[i].Number, GPIO_PIN_SET);
 2126              		.loc 1 453 13 is_stmt 1 view .LVU614
 2127 01cc A846     		mov	r8, r5
 2128 01ce DFF89490 		ldr	r9, .L132+64
 2129 01d2 09EBC504 		add	r4, r9, r5, lsl #3
 2130 01d6 94E80300 		ldm	r4, {r0, r1}
 2131 01da FFF7FEFF 		bl	set_pin_output
 2132              	.LVL142:
 454:Core/Src/main.c ****             sprintf(conn_unit, "%d:", Output_Pins[i].index);
 2133              		.loc 1 454 13 view .LVU615
 2134 01de 0122     		movs	r2, #1
 2135 01e0 A188     		ldrh	r1, [r4, #4]
 2136 01e2 59F83500 		ldr	r0, [r9, r5, lsl #3]
 2137 01e6 FFF7FEFF 		bl	HAL_GPIO_WritePin
 2138              	.LVL143:
 455:Core/Src/main.c ****             strcat((char*)conn_msg,conn_unit);
 2139              		.loc 1 455 13 view .LVU616
 2140 01ea E288     		ldrh	r2, [r4, #6]
 2141 01ec 2049     		ldr	r1, .L132+76
 2142 01ee 3846     		mov	r0, r7
 2143 01f0 FFF7FEFF 		bl	sprintf
 2144              	.LVL144:
 456:Core/Src/main.c **** 
 2145              		.loc 1 456 13 view .LVU617
 2146 01f4 3946     		mov	r1, r7
 2147 01f6 1A48     		ldr	r0, .L132+60
ARM GAS  /tmp/ccVvSPo8.s 			page 77


 2148 01f8 FFF7FEFF 		bl	strcat
 2149              	.LVL145:
 458:Core/Src/main.c ****               if ((HAL_GPIO_ReadPin(Pins[k].Letter, Pins[k].Number) == GPIO_PIN_SET) && (Pins[k].in
 2150              		.loc 1 458 13 view .LVU618
 2151              	.LBB31:
 458:Core/Src/main.c ****               if ((HAL_GPIO_ReadPin(Pins[k].Letter, Pins[k].Number) == GPIO_PIN_SET) && (Pins[k].in
 2152              		.loc 1 458 17 view .LVU619
 458:Core/Src/main.c ****               if ((HAL_GPIO_ReadPin(Pins[k].Letter, Pins[k].Number) == GPIO_PIN_SET) && (Pins[k].in
 2153              		.loc 1 458 21 is_stmt 0 view .LVU620
 2154 01fc 0024     		movs	r4, #0
 458:Core/Src/main.c ****               if ((HAL_GPIO_ReadPin(Pins[k].Letter, Pins[k].Number) == GPIO_PIN_SET) && (Pins[k].in
 2155              		.loc 1 458 13 view .LVU621
 2156 01fe ACE7     		b	.L122
 2157              	.LVL146:
 2158              	.L131:
 458:Core/Src/main.c ****               if ((HAL_GPIO_ReadPin(Pins[k].Letter, Pins[k].Number) == GPIO_PIN_SET) && (Pins[k].in
 2159              		.loc 1 458 13 view .LVU622
 2160              	.LBE31:
 2161              	.LBE29:
 469:Core/Src/main.c ****           do_Tx(&huart3, (uint8_t*)"go ACK\n",7);
 2162              		.loc 1 469 11 is_stmt 1 view .LVU623
 469:Core/Src/main.c ****           do_Tx(&huart3, (uint8_t*)"go ACK\n",7);
 2163              		.loc 1 469 36 is_stmt 0 view .LVU624
 2164 0200 174D     		ldr	r5, .L132+60
 2165              	.LVL147:
 469:Core/Src/main.c ****           do_Tx(&huart3, (uint8_t*)"go ACK\n",7);
 2166              		.loc 1 469 36 view .LVU625
 2167 0202 2846     		mov	r0, r5
 2168 0204 FFF7FEFF 		bl	strlen
 2169              	.LVL148:
 469:Core/Src/main.c ****           do_Tx(&huart3, (uint8_t*)"go ACK\n",7);
 2170              		.loc 1 469 11 view .LVU626
 2171 0208 064C     		ldr	r4, .L132
 2172 020a 82B2     		uxth	r2, r0
 2173 020c 2946     		mov	r1, r5
 2174 020e 2046     		mov	r0, r4
 2175 0210 FFF7FEFF 		bl	do_Tx
 2176              	.LVL149:
 470:Core/Src/main.c ****           state = Default;
 2177              		.loc 1 470 11 is_stmt 1 view .LVU627
 2178 0214 0722     		movs	r2, #7
 2179 0216 1749     		ldr	r1, .L132+80
 2180 0218 2046     		mov	r0, r4
 2181 021a FFF7FEFF 		bl	do_Tx
 2182              	.LVL150:
 471:Core/Src/main.c ****       break;
 2183              		.loc 1 471 11 view .LVU628
 472:Core/Src/main.c ****     }
 2184              		.loc 1 472 7 view .LVU629
 472:Core/Src/main.c ****     }
 2185              		.loc 1 472 7 is_stmt 0 view .LVU630
 2186              	.LBE36:
 364:Core/Src/main.c ****   {
 2187              		.loc 1 364 3 is_stmt 1 view .LVU631
 366:Core/Src/main.c ****       case Default:
 2188              		.loc 1 366 5 view .LVU632
 2189              	.LBB37:
ARM GAS  /tmp/ccVvSPo8.s 			page 78


 471:Core/Src/main.c ****       break;
 2190              		.loc 1 471 17 is_stmt 0 view .LVU633
 2191 021e 0424     		movs	r4, #4
 2192 0220 49E7     		b	.L110
 2193              	.L133:
 2194 0222 00BF     		.align	2
 2195              	.L132:
 2196 0224 00000000 		.word	huart3
 2197 0228 00000000 		.word	.LC1
 2198 022c 00010000 		.word	.LANCHOR3+256
 2199 0230 00000000 		.word	.LANCHOR2
 2200 0234 00000000 		.word	.LANCHOR5
 2201 0238 00000000 		.word	.LANCHOR4
 2202 023c 2C000000 		.word	.LC6
 2203 0240 00000000 		.word	.LANCHOR0
 2204 0244 00000000 		.word	.LANCHOR1
 2205 0248 40000000 		.word	.LC8
 2206 024c 0C000000 		.word	.LC2
 2207 0250 10000000 		.word	.LC3
 2208 0254 18000000 		.word	.LC4
 2209 0258 34000000 		.word	.LC7
 2210 025c 20000000 		.word	.LC5
 2211 0260 00000000 		.word	.LANCHOR3
 2212 0264 00000000 		.word	Output_Pins
 2213 0268 50000000 		.word	.LC10
 2214 026c 54000000 		.word	.LC11
 2215 0270 4C000000 		.word	.LC9
 2216 0274 58000000 		.word	.LC12
 2217              	.LBE37:
 2218              		.cfi_endproc
 2219              	.LFE157:
 2221              		.global	conn_msg
 2222              		.global	rx3_done
 2223              		.global	rx3_offset
 2224              		.global	rx3_len
 2225              		.global	rx3_buf
 2226              		.comm	Input_Pins,576,4
 2227              		.global	Input_Pins_len
 2228              		.comm	Output_Pins,576,4
 2229              		.global	Output_Pins_len
 2230              		.global	Pins
 2231              		.comm	hdma_usart3_tx,120,4
 2232              		.comm	hdma_usart3_rx,120,4
 2233              		.comm	huart3,148,4
 2234              		.section	.bss.Input_Pins_len,"aw",%nobits
 2235              		.set	.LANCHOR1,. + 0
 2238              	Input_Pins_len:
 2239 0000 00       		.space	1
 2240              		.section	.bss.Output_Pins_len,"aw",%nobits
 2241              		.set	.LANCHOR0,. + 0
 2244              	Output_Pins_len:
 2245 0000 00       		.space	1
 2246              		.section	.bss.rx3_done,"aw",%nobits
 2247              		.set	.LANCHOR5,. + 0
 2250              	rx3_done:
 2251 0000 00       		.space	1
 2252              		.section	.bss.rx3_len,"aw",%nobits
ARM GAS  /tmp/ccVvSPo8.s 			page 79


 2253              		.set	.LANCHOR4,. + 0
 2256              	rx3_len:
 2257 0000 00       		.space	1
 2258              		.section	.bss.rx3_offset,"aw",%nobits
 2261              	rx3_offset:
 2262 0000 00       		.space	1
 2263              		.section	.data.Pins,"aw"
 2264              		.align	2
 2265              		.set	.LANCHOR2,. + 0
 2268              	Pins:
 2269 0000 00100258 		.word	1476530176
 2270 0004 0040     		.short	16384
 2271 0006 0000     		.short	0
 2272 0008 00100258 		.word	1476530176
 2273 000c 0080     		.short	-32768
 2274 000e 0100     		.short	1
 2275 0010 00100258 		.word	1476530176
 2276 0014 0020     		.short	8192
 2277 0016 0200     		.short	2
 2278 0018 00140258 		.word	1476531200
 2279 001c 0020     		.short	8192
 2280 001e 0300     		.short	3
 2281 0020 00140258 		.word	1476531200
 2282 0024 0010     		.short	4096
 2283 0026 0400     		.short	4
 2284 0028 00180258 		.word	1476532224
 2285 002c 0040     		.short	16384
 2286 002e 0500     		.short	5
 2287 0030 00180258 		.word	1476532224
 2288 0034 1000     		.short	16
 2289 0036 0600     		.short	6
 2290 0038 00180258 		.word	1476532224
 2291 003c 4000     		.short	64
 2292 003e 0700     		.short	7
 2293 0040 00180258 		.word	1476532224
 2294 0044 2000     		.short	32
 2295 0046 0800     		.short	8
 2296 0048 00180258 		.word	1476532224
 2297 004c 0001     		.short	256
 2298 004e 0900     		.short	9
 2299 0050 00100258 		.word	1476530176
 2300 0054 0100     		.short	1
 2301 0056 0A00     		.short	10
 2302 0058 00140258 		.word	1476531200
 2303 005c 0008     		.short	2048
 2304 005e 0B00     		.short	11
 2305 0060 00140258 		.word	1476531200
 2306 0064 0080     		.short	-32768
 2307 0066 0C00     		.short	12
 2308 0068 00140258 		.word	1476531200
 2309 006c 0800     		.short	8
 2310 006e 0D00     		.short	13
 2311 0070 00100258 		.word	1476530176
 2312 0074 0010     		.short	4096
 2313 0076 0E00     		.short	14
 2314 0078 00100258 		.word	1476530176
 2315 007c 0004     		.short	1024
ARM GAS  /tmp/ccVvSPo8.s 			page 80


 2316 007e 0F00     		.short	15
 2317 0080 000C0258 		.word	1476529152
 2318 0084 0008     		.short	2048
 2319 0086 1000     		.short	16
 2320 0088 000C0258 		.word	1476529152
 2321 008c 0010     		.short	4096
 2322 008e 1100     		.short	17
 2323 0090 000C0258 		.word	1476529152
 2324 0094 0020     		.short	8192
 2325 0096 1200     		.short	18
 2326 0098 00000258 		.word	1476526080
 2327 009c 0800     		.short	8
 2328 009e 1300     		.short	19
 2329 00a0 00040258 		.word	1476527104
 2330 00a4 0004     		.short	1024
 2331 00a6 1400     		.short	20
 2332 00a8 00140258 		.word	1476531200
 2333 00ac 0004     		.short	1024
 2334 00ae 1500     		.short	21
 2335 00b0 00100258 		.word	1476530176
 2336 00b4 8000     		.short	128
 2337 00b6 1600     		.short	22
 2338 00b8 000C0258 		.word	1476529152
 2339 00bc 0040     		.short	16384
 2340 00be 1700     		.short	23
 2341 00c0 000C0258 		.word	1476529152
 2342 00c4 0080     		.short	-32768
 2343 00c6 1800     		.short	24
 2344 00c8 00140258 		.word	1476531200
 2345 00cc 0040     		.short	16384
 2346 00ce 1900     		.short	25
 2347 00d0 00100258 		.word	1476530176
 2348 00d4 0002     		.short	512
 2349 00d6 1A00     		.short	26
 2350 00d8 00100258 		.word	1476530176
 2351 00dc 0008     		.short	2048
 2352 00de 1B00     		.short	27
 2353 00e0 00100258 		.word	1476530176
 2354 00e4 2000     		.short	32
 2355 00e6 1C00     		.short	28
 2356 00e8 00100258 		.word	1476530176
 2357 00ec 1000     		.short	16
 2358 00ee 1D00     		.short	29
 2359 00f0 00100258 		.word	1476530176
 2360 00f4 0400     		.short	4
 2361 00f6 1E00     		.short	30
 2362 00f8 00180258 		.word	1476532224
 2363 00fc 0800     		.short	8
 2364 00fe 1F00     		.short	31
 2365 0100 00180258 		.word	1476532224
 2366 0104 0400     		.short	4
 2367 0106 2000     		.short	32
 2368 0108 000C0258 		.word	1476529152
 2369 010c 0800     		.short	8
 2370 010e 2100     		.short	33
 2371 0110 00080258 		.word	1476528128
 2372 0114 0100     		.short	1
ARM GAS  /tmp/ccVvSPo8.s 			page 81


 2373 0116 2200     		.short	34
 2374 0118 00000258 		.word	1476526080
 2375 011c 1000     		.short	16
 2376 011e 2300     		.short	35
 2377 0120 000C0258 		.word	1476529152
 2378 0124 1000     		.short	16
 2379 0126 2400     		.short	36
 2380 0128 000C0258 		.word	1476529152
 2381 012c 2000     		.short	32
 2382 012e 2500     		.short	37
 2383 0130 000C0258 		.word	1476529152
 2384 0134 4000     		.short	64
 2385 0136 2600     		.short	38
 2386 0138 000C0258 		.word	1476529152
 2387 013c 8000     		.short	128
 2388 013e 2700     		.short	39
 2389 0140 00100258 		.word	1476530176
 2390 0144 0800     		.short	8
 2391 0146 2800     		.short	40
 2392 0148 00140258 		.word	1476531200
 2393 014c 0200     		.short	2
 2394 014e 2900     		.short	41
 2395 0150 00140258 		.word	1476531200
 2396 0154 0400     		.short	4
 2397 0156 2A00     		.short	42
 2398 0158 00140258 		.word	1476531200
 2399 015c 0001     		.short	256
 2400 015e 2B00     		.short	43
 2401 0160 00140258 		.word	1476531200
 2402 0164 0002     		.short	512
 2403 0166 2C00     		.short	44
 2404 0168 00180258 		.word	1476532224
 2405 016c 0200     		.short	2
 2406 016e 2D00     		.short	45
 2407 0170 00100258 		.word	1476530176
 2408 0174 4000     		.short	64
 2409 0176 2E00     		.short	46
 2410 0178 00180258 		.word	1476532224
 2411 017c 0080     		.short	-32768
 2412 017e 2F00     		.short	47
 2413 0180 00180258 		.word	1476532224
 2414 0184 0004     		.short	1024
 2415 0186 3000     		.short	48
 2416 0188 00180258 		.word	1476532224
 2417 018c 0010     		.short	4096
 2418 018e 3100     		.short	49
 2419 0190 00180258 		.word	1476532224
 2420 0194 0002     		.short	512
 2421 0196 3200     		.short	50
 2422 0198 00100258 		.word	1476530176
 2423 019c 0200     		.short	2
 2424 019e 3300     		.short	51
 2425 01a0 00180258 		.word	1476532224
 2426 01a4 0100     		.short	1
 2427 01a6 3400     		.short	52
 2428 01a8 000C0258 		.word	1476529152
 2429 01ac 0100     		.short	1
ARM GAS  /tmp/ccVvSPo8.s 			page 82


 2430 01ae 3500     		.short	53
 2431 01b0 000C0258 		.word	1476529152
 2432 01b4 0200     		.short	2
 2433 01b6 3600     		.short	54
 2434 01b8 00140258 		.word	1476531200
 2435 01bc 0100     		.short	1
 2436 01be 3700     		.short	55
 2437 01c0 00000258 		.word	1476526080
 2438 01c4 4000     		.short	64
 2439 01c6 3800     		.short	56
 2440 01c8 00000258 		.word	1476526080
 2441 01cc 2000     		.short	32
 2442 01ce 3900     		.short	57
 2443 01d0 00080258 		.word	1476528128
 2444 01d4 4000     		.short	64
 2445 01d6 3A00     		.short	58
 2446 01d8 00040258 		.word	1476527104
 2447 01dc 0008     		.short	2048
 2448 01de 3B00     		.short	59
 2449 01e0 00040258 		.word	1476527104
 2450 01e4 0400     		.short	4
 2451 01e6 3C00     		.short	60
 2452 01e8 00040258 		.word	1476527104
 2453 01ec 0200     		.short	2
 2454 01ee 3D00     		.short	61
 2455 01f0 00140258 		.word	1476531200
 2456 01f4 1000     		.short	16
 2457 01f6 3E00     		.short	62
 2458 01f8 00100258 		.word	1476530176
 2459 01fc 0001     		.short	256
 2460 01fe 3F00     		.short	63
 2461 0200 00080258 		.word	1476528128
 2462 0204 0008     		.short	2048
 2463 0206 4000     		.short	64
 2464 0208 00080258 		.word	1476528128
 2465 020c 0004     		.short	1024
 2466 020e 4100     		.short	65
 2467 0210 00080258 		.word	1476528128
 2468 0214 0010     		.short	4096
 2469 0216 4200     		.short	66
 2470 0218 00140258 		.word	1476531200
 2471 021c 4000     		.short	64
 2472 021e 4300     		.short	67
 2473 0220 00140258 		.word	1476531200
 2474 0224 8000     		.short	128
 2475 0226 4400     		.short	68
 2476 0228 00040258 		.word	1476527104
 2477 022c 8000     		.short	128
 2478 022e 4500     		.short	69
 2479 0230 00080258 		.word	1476528128
 2480 0234 0400     		.short	4
 2481 0236 4600     		.short	70
 2482 0238 00080258 		.word	1476528128
 2483 023c 0800     		.short	8
 2484 023e 4700     		.short	71
 2485              		.section	.dma_buffer,"aw"
 2486              		.align	5
ARM GAS  /tmp/ccVvSPo8.s 			page 83


 2487              		.set	.LANCHOR3,. + 0
 2490              	conn_msg:
 2491 0000 00000000 		.space	256
 2491      00000000 
 2491      00000000 
 2491      00000000 
 2491      00000000 
 2494              	rx3_buf:
 2495 0100 00000000 		.space	256
 2495      00000000 
 2495      00000000 
 2495      00000000 
 2495      00000000 
 2496              		.text
 2497              	.Letext0:
 2498              		.file 3 "/usr/arm-none-eabi/include/machine/_default_types.h"
 2499              		.file 4 "/usr/arm-none-eabi/include/sys/_stdint.h"
 2500              		.file 5 "Drivers/CMSIS/Include/core_cm7.h"
 2501              		.file 6 "Drivers/CMSIS/Device/ST/STM32H7xx/Include/system_stm32h7xx.h"
 2502              		.file 7 "Drivers/CMSIS/Device/ST/STM32H7xx/Include/stm32h753xx.h"
 2503              		.file 8 "/usr/arm-none-eabi/include/sys/lock.h"
 2504              		.file 9 "/usr/arm-none-eabi/include/sys/_types.h"
 2505              		.file 10 "/usr/lib/gcc/arm-none-eabi/9.3.0/include/stddef.h"
 2506              		.file 11 "/usr/arm-none-eabi/include/sys/reent.h"
 2507              		.file 12 "/usr/arm-none-eabi/include/math.h"
 2508              		.file 13 "Drivers/STM32H7xx_HAL_Driver/Inc/stm32h7xx_hal_def.h"
 2509              		.file 14 "Drivers/STM32H7xx_HAL_Driver/Inc/stm32h7xx_hal_rcc.h"
 2510              		.file 15 "Drivers/STM32H7xx_HAL_Driver/Inc/stm32h7xx_hal_gpio.h"
 2511              		.file 16 "Drivers/STM32H7xx_HAL_Driver/Inc/stm32h7xx_hal_dma.h"
 2512              		.file 17 "Drivers/STM32H7xx_HAL_Driver/Inc/stm32h7xx_hal_cortex.h"
 2513              		.file 18 "Drivers/STM32H7xx_HAL_Driver/Inc/stm32h7xx_hal_flash.h"
 2514              		.file 19 "Drivers/STM32H7xx_HAL_Driver/Inc/stm32h7xx_hal_uart.h"
 2515              		.file 20 "Drivers/STM32H7xx_HAL_Driver/Inc/stm32h7xx_hal.h"
 2516              		.file 21 "Drivers/STM32H7xx_HAL_Driver/Inc/stm32h7xx_hal_uart_ex.h"
 2517              		.file 22 "Drivers/STM32H7xx_HAL_Driver/Inc/stm32h7xx_hal_pwr_ex.h"
 2518              		.file 23 "/usr/arm-none-eabi/include/string.h"
 2519              		.file 24 "/usr/arm-none-eabi/include/stdio.h"
 2520              		.file 25 "<built-in>"
ARM GAS  /tmp/ccVvSPo8.s 			page 84

